
working/injected_arm:     file format elf32-littlearm

Sections:
Idx Name          Size      VMA       LMA       File off  Algn
  0 .text         0000c5c4  01000000  01000000  00010000  2**4
                  CONTENTS, ALLOC, LOAD, READONLY, CODE
  1 .init         00000010  00010114  00010114  00000114  2**2
                  CONTENTS, ALLOC, LOAD, READONLY, CODE
  2 .fini         00000010  0100c5c4  0100c5c4  0001c5c4  2**2
                  CONTENTS, ALLOC, LOAD, READONLY, CODE
  3 .rodata       0000118c  0100c5d8  0100c5d8  0001c5d8  2**3
                  CONTENTS, ALLOC, LOAD, READONLY, DATA
  4 .ARM.extab    00000018  0100d764  0100d764  0001d764  2**2
                  CONTENTS, ALLOC, LOAD, READONLY, DATA
  5 .ARM.exidx    00000138  0100d77c  0100d77c  0001d77c  2**2
                  CONTENTS, ALLOC, LOAD, READONLY, DATA
  6 .eh_frame     00000004  0100d8b4  0100d8b4  0001d8b4  2**2
                  CONTENTS, ALLOC, LOAD, READONLY, DATA
  7 .tbss         00000008  0101dfec  0101dfec  0001dfec  2**2
                  ALLOC, THREAD_LOCAL
  8 .init_array   00000004  0101dfec  0101dfec  0001dfec  2**2
                  CONTENTS, ALLOC, LOAD, DATA
  9 .fini_array   00000004  0101dff0  0101dff0  0001dff0  2**2
                  CONTENTS, ALLOC, LOAD, DATA
 10 .data.rel.ro  0000000c  0101dff4  0101dff4  0001dff4  2**2
                  CONTENTS, ALLOC, LOAD, DATA
 11 .got          000000cc  0101e000  0101e000  0001e000  2**2
                  CONTENTS, ALLOC, LOAD, DATA
 12 .data         000001cc  0101e0cc  0101e0cc  0001e0cc  2**2
                  CONTENTS, ALLOC, LOAD, DATA
 13 .bss          00002a50  0101e298  0101e298  0001e298  2**2
                  ALLOC
 14 .comment      0000003f  00000000  00000000  0001e298  2**0
                  CONTENTS, READONLY
 15 .ARM.attributes 0000002b  00000000  00000000  0001e2d7  2**0
                  CONTENTS, READONLY
 16 .debug_aranges 000001b8  00000000  00000000  0001e308  2**3
                  CONTENTS, READONLY, DEBUGGING, OCTETS
 17 .debug_info   00002eef  00000000  00000000  0001e4c0  2**0
                  CONTENTS, READONLY, DEBUGGING, OCTETS
 18 .debug_abbrev 00000865  00000000  00000000  000213af  2**0
                  CONTENTS, READONLY, DEBUGGING, OCTETS
 19 .debug_line   0000220e  00000000  00000000  00021c14  2**0
                  CONTENTS, READONLY, DEBUGGING, OCTETS
 20 .debug_frame  00000658  00000000  00000000  00023e24  2**2
                  CONTENTS, READONLY, DEBUGGING, OCTETS
 21 .debug_str    000011c6  00000000  00000000  0002447c  2**0
                  CONTENTS, READONLY, DEBUGGING, OCTETS
 22 .debug_loc    000024f7  00000000  00000000  00025642  2**0
                  CONTENTS, READONLY, DEBUGGING, OCTETS
 23 .debug_ranges 00000158  00000000  00000000  00027b40  2**3
                  CONTENTS, READONLY, DEBUGGING, OCTETS
SYMBOL TABLE:
01000000 l    d  .text	00000000 .text
00010114 l    d  .init	00000000 .init
0100c5c4 l    d  .fini	00000000 .fini
0100c5d8 l    d  .rodata	00000000 .rodata
0100d764 l    d  .ARM.extab	00000000 .ARM.extab
0100d77c l    d  .ARM.exidx	00000000 .ARM.exidx
0100d8b4 l    d  .eh_frame	00000000 .eh_frame
0101dfec l    d  .tbss	00000000 .tbss
0101dfec l    d  .init_array	00000000 .init_array
0101dff0 l    d  .fini_array	00000000 .fini_array
0101dff4 l    d  .data.rel.ro	00000000 .data.rel.ro
0101e000 l    d  .got	00000000 .got
0101e0cc l    d  .data	00000000 .data
0101e298 l    d  .bss	00000000 .bss
00000000 l    d  .comment	00000000 .comment
00000000 l    d  .ARM.attributes	00000000 .ARM.attributes
00000000 l    d  .debug_aranges	00000000 .debug_aranges
00000000 l    d  .debug_info	00000000 .debug_info
00000000 l    d  .debug_abbrev	00000000 .debug_abbrev
00000000 l    d  .debug_line	00000000 .debug_line
00000000 l    d  .debug_frame	00000000 .debug_frame
00000000 l    d  .debug_str	00000000 .debug_str
00000000 l    d  .debug_loc	00000000 .debug_loc
00000000 l    d  .debug_ranges	00000000 .debug_ranges
00000000 l    df *ABS*	00000000 ssp.c
0100c618 l     O .rodata	0000000c msg3.6995
0100c624 l     O .rodata	0000001a msg1.6994
00000000 l    df *ABS*	00000000 pr-support.c
0100c0d4 l     F .text	00000064 next_unwind_byte
0100c138 l     F .text	0000002c _Unwind_GetGR.constprop.0
0100c164 l     F .text	00000004 unwind_UCB_from_context
00000000 l    df *ABS*	00000000 injected.c
00000000 l    df *ABS*	00000000 /home/o/orc/root/x86_64-pc-linux-gnu/armv7a-hardfloat-linux-uclibceabi/gcc-bin/9.2.0/../../../../armv7a-hardfloat-linux-uclibceabi/usr/lib/crt1.o
00000000 l    df *ABS*	00000000 initfini.c
00000000 l    df *ABS*	00000000 crtstuff.c
0100d8b4 l     O .eh_frame	00000000 
0100017c l     F .text	00000000 deregister_tm_clones
010001c0 l     F .text	00000000 register_tm_clones
01000210 l     F .text	00000000 __do_global_dtors_aux
0101e298 l     O .bss	00000001 completed.10403
0101dff0 l     O .fini_array	00000000 __do_global_dtors_aux_fini_array_entry
01000278 l     F .text	00000000 frame_dummy
0101e29c l     O .bss	00000018 object.10408
0101dfec l     O .init_array	00000000 __frame_dummy_init_array_entry
00000000 l    df *ABS*	00000000 abort.c
00000000 l    df *ABS*	00000000 raise.c
00000000 l    df *ABS*	00000000 __uClibc_main.c
00000000 l    df *ABS*	00000000 sigaction.c
00000000 l    df *ABS*	00000000 bsd-_setjmp.os
00000000 l    df *ABS*	00000000 sigrestorer.os
00000000 l    df *ABS*	00000000 __syscall_fcntl.c
00000000 l    df *ABS*	00000000 __syscall_rt_sigaction.c
00000000 l    df *ABS*	00000000 _exit.c
00000000 l    df *ABS*	00000000 getegid.c
00000000 l    df *ABS*	00000000 geteuid.c
00000000 l    df *ABS*	00000000 getgid.c
00000000 l    df *ABS*	00000000 gettimeofday.c
00000000 l    df *ABS*	00000000 getuid.c
00000000 l    df *ABS*	00000000 sigprocmask.c
00000000 l    df *ABS*	00000000 errno.c
00000000 l    df *ABS*	00000000 syslog.c
0100c67e l     O .rodata	0000000c truncate_msg.10645
00000000 l    df *ABS*	00000000 ctime.c
00000000 l    df *ABS*	00000000 localtime_r.c
00000000 l    df *ABS*	00000000 tzset.c
00000000 l    df *ABS*	00000000 _time_localtime_tzi.c
0100c6ee l     O .rodata	0000000d day_cor
00000000 l    df *ABS*	00000000 sprintf.c
00000000 l    df *ABS*	00000000 vsnprintf.c
00000000 l    df *ABS*	00000000 _vfprintf_internal.c
0100c709 l     O .rodata	00000007 spec_base.10748
00000000 l    df *ABS*	00000000 _ppfs_init.c
00000000 l    df *ABS*	00000000 _ppfs_prepargs.c
00000000 l    df *ABS*	00000000 _ppfs_setargs.c
00000000 l    df *ABS*	00000000 _ppfs_parsespec.c
0100c732 l     O .rodata	00000008 spec_flags.10753
0100c71d l     O .rodata	00000015 spec_chars.10754
00000000 l    df *ABS*	00000000 fputs_unlocked.c
00000000 l    df *ABS*	00000000 fwrite_unlocked.c
00000000 l    df *ABS*	00000000 memcpy.os
00000000 l    df *ABS*	00000000 memmove.os
00000000 l    df *ABS*	00000000 memset.os
00000000 l    df *ABS*	00000000 strcmp.os
00000000 l    df *ABS*	00000000 strlen.os
00000000 l    df *ABS*	00000000 strchr.c
00000000 l    df *ABS*	00000000 strcpy.c
00000000 l    df *ABS*	00000000 strncmp.c
00000000 l    df *ABS*	00000000 strncpy.c
00000000 l    df *ABS*	00000000 strnlen.c
00000000 l    df *ABS*	00000000 strrchr.c
00000000 l    df *ABS*	00000000 __glibc_strerror_r.c
00000000 l    df *ABS*	00000000 __xpg_strerror_r.c
0100c79c l     O .rodata	0000000e unknown.5341
00000000 l    df *ABS*	00000000 _string_syserrmsgs.c
00000000 l    df *ABS*	00000000 connect.c
00000000 l    df *ABS*	00000000 send.c
00000000 l    df *ABS*	00000000 socket.c
00000000 l    df *ABS*	00000000 malloc.c
00000000 l    df *ABS*	00000000 free.c
00000000 l    df *ABS*	00000000 getenv.c
00000000 l    df *ABS*	00000000 exit.c
00000000 l    df *ABS*	00000000 sysconf.c
00000000 l    df *ABS*	00000000 libc_multiple_threads.c
00000000 l    df *ABS*	00000000 getpid.c
00000000 l    df *ABS*	00000000 close.os
00000000 l    df *ABS*	00000000 open.os
00000000 l    df *ABS*	00000000 write.os
00000000 l    df *ABS*	00000000 read.os
00000000 l    df *ABS*	00000000 libc-cancellation.c
00000000 l    df *ABS*	00000000 libc-tls.c
00000000 l    df *ABS*	00000000 dl-support.c
00000000 l    df *ABS*	00000000 mmap.c
00000000 l    df *ABS*	00000000 __syscall_error.c
00000000 l    df *ABS*	00000000 setjmp.os
00000000 l    df *ABS*	00000000 getdtablesize.c
00000000 l    df *ABS*	00000000 getpagesize.c
00000000 l    df *ABS*	00000000 getrlimit.c
00000000 l    df *ABS*	00000000 kill.c
00000000 l    df *ABS*	00000000 lseek.c
00000000 l    df *ABS*	00000000 munmap.c
00000000 l    df *ABS*	00000000 sbrk.c
00000000 l    df *ABS*	00000000 time.c
00000000 l    df *ABS*	00000000 __C_ctype_b.c
00000000 l    df *ABS*	00000000 closedir.c
00000000 l    df *ABS*	00000000 opendir.c
00000000 l    df *ABS*	00000000 readdir64.c
00000000 l    df *ABS*	00000000 parse_config.c
00000000 l    df *ABS*	00000000 asctime.c
00000000 l    df *ABS*	00000000 asctime_r.c
00000000 l    df *ABS*	00000000 _time_t2tm.c
0100d69b l     O .rodata	0000000d days
0100d697 l     O .rodata	00000004 utc_string
00000000 l    df *ABS*	00000000 wcrtomb.c
00000000 l    df *ABS*	00000000 wcsrtombs.c
00000000 l    df *ABS*	00000000 wcsnrtombs.c
00000000 l    df *ABS*	00000000 fclose.c
00000000 l    df *ABS*	00000000 fopen.c
00000000 l    df *ABS*	00000000 _fopen.c
00000000 l    df *ABS*	00000000 _fwrite.c
00000000 l    df *ABS*	00000000 _stdio.c
00000000 l    df *ABS*	00000000 _trans2w.c
00000000 l    df *ABS*	00000000 _wcommit.c
00000000 l    df *ABS*	00000000 _cs_funcs.c
00000000 l    df *ABS*	00000000 _load_inttype.c
00000000 l    df *ABS*	00000000 _store_inttype.c
00000000 l    df *ABS*	00000000 _uintmaxtostr.c
00000000 l    df *ABS*	00000000 _fpmaxtostr.c
00000000 l    df *ABS*	00000000 fgetc.c
00000000 l    df *ABS*	00000000 fgets.c
00000000 l    df *ABS*	00000000 fflush_unlocked.c
00000000 l    df *ABS*	00000000 fgetc_unlocked.c
00000000 l    df *ABS*	00000000 fgets_unlocked.c
00000000 l    df *ABS*	00000000 _memcpy.os
00000000 l    df *ABS*	00000000 memcmp.os
00000000 l    df *ABS*	00000000 memchr.c
00000000 l    df *ABS*	00000000 mempcpy.c
00000000 l    df *ABS*	00000000 memrchr.c
00000000 l    df *ABS*	00000000 strchrnul.c
00000000 l    df *ABS*	00000000 strcspn.c
00000000 l    df *ABS*	00000000 strspn.c
00000000 l    df *ABS*	00000000 isatty.c
00000000 l    df *ABS*	00000000 tcgetattr.c
00000000 l    df *ABS*	00000000 sigjmp.c
00000000 l    df *ABS*	00000000 calloc.c
00000000 l    df *ABS*	00000000 realloc.c
00000000 l    df *ABS*	00000000 libc-lowlevellock.c
00000000 l    df *ABS*	00000000 brk.c
00000000 l    df *ABS*	00000000 fstat.c
00000000 l    df *ABS*	00000000 ioctl.c
00000000 l    df *ABS*	00000000 mremap.c
00000000 l    df *ABS*	00000000 xstatconv.c
00000000 l    df *ABS*	00000000 llseek.c
00000000 l    df *ABS*	00000000 getdents64.c
00000000 l    df *ABS*	00000000 fseeko.c
00000000 l    df *ABS*	00000000 fseeko64.c
00000000 l    df *ABS*	00000000 _READ.c
00000000 l    df *ABS*	00000000 _WRITE.c
00000000 l    df *ABS*	00000000 _adjust_pos.c
00000000 l    df *ABS*	00000000 _rfill.c
00000000 l    df *ABS*	00000000 _trans2r.c
00000000 l    df *ABS*	00000000 _arm_muldf3.o
00000000 l    df *ABS*	00000000 _udivsi3.o
0100a0c8 l       .text	00000000 .udivsi3_skip_div0_test
00000000 l       *ABS*	00000000 shift
00000000 l    df *ABS*	00000000 _divsi3.o
0100a2dc l       .text	00000000 .divsi3_skip_div0_test
00000000 l       *ABS*	00000000 shift
00000000 l    df *ABS*	00000000 _arm_addsubdf3.o
00000000 l    df *ABS*	00000000 _arm_muldivdf3.o
00000000 l    df *ABS*	00000000 _arm_cmpdf2.o
00000000 l    df *ABS*	00000000 _arm_fixunsdfsi.o
00000000 l    df *ABS*	00000000 _dvmd_lnx.o
00000000 l    df *ABS*	00000000 unwind-arm.c
0100aed4 l     F .text	00000018 selfrel_offset31
0100aeec l     F .text	00000090 search_EIT_table
0100af7c l     F .text	0000005c __gnu_unwind_get_pr_addr
0100afd8 l     F .text	00000124 get_eit_entry
0100b0fc l     F .text	00000088 restore_non_core_regs
0100b184 l     F .text	00000014 _Unwind_decode_typeinfo_ptr.isra.0
0100b198 l     F .text	00000008 __gnu_unwind_24bit.isra.0
0100b1a0 l     F .text	00000004 _Unwind_DebugHook
0100b1a4 l     F .text	00000064 unwind_phase2
0100b208 l     F .text	0000013c unwind_phase2_forced
0100b52c l     F .text	0000002c _Unwind_GetGR
0100b5bc l     F .text	00000030 _Unwind_SetGR
0100b6bc l     F .text	00000478 __gnu_unwind_pr_common
00000000 l    df *ABS*	00000000 libunwind.o
00000000 l    df *ABS*	00000000 crtstuff.c
0100d8b4 l     O .eh_frame	00000000 __FRAME_END__
00000000 l    df *ABS*	00000000 initfini.c
00000000 l    df *ABS*	00000000 
00000000 l       .tbss	00000000 _TLS_MODULE_BASE_
0100d8b4 l       .ARM.exidx	00000000 __exidx_end
0101dff4 l       .fini_array	00000000 __fini_array_end
0100d77c l       .ARM.exidx	00000000 __exidx_start
0101dff0 l       .fini_array	00000000 __fini_array_start
0101dff0 l       .init_array	00000000 __init_array_end
0101dfec l       .tbss	00000000 __preinit_array_end
0101e000 l     O .got	00000000 _GLOBAL_OFFSET_TABLE_
0101dfec l       .init_array	00000000 __init_array_start
0101dfec l       .tbss	00000000 __preinit_array_start
0100c08c g     F .text	00000024 .hidden ___Unwind_ForcedUnwind
0100b34c g     F .text	000000a8 .hidden __gnu_Unwind_RaiseException
01000b2c g     F .text	00000084 __libc_sigaction
010002f0  w    F .text	00000018 setup_small_return_value
0100ae34 g     F .text	00000014 .hidden __aeabi_dcmple
01003544 g     F .text	0000001c strcpy
01006160 g     F .text	00000010 asctime
0100ad54 g     F .text	00000088 .hidden __cmpdf2
0101e16c g     O .data	00000004 .hidden __GI___ctype_b
01008ab0 g     F .text	0000002c bcmp
01008adc g     F .text	000000fc .hidden __GI_memchr
0100386c g     F .text	00000014 .hidden __GI___glibc_strerror_r
0100ad54 g     F .text	00000088 .hidden __eqdf2
01006914 g     F .text	0000000c .hidden __GI_fopen
01005904 g     F .text	00000034 getrlimit
01009524 g     F .text	000000d0 ioctl
0101e8a4 g     O .bss	00000004 _stdio_openlist_use_count
01000b2c  w    F .text	00000084 .hidden __GI_sigaction
01005a30 g     F .text	00000028 .hidden __GI_time
0100a874 g     F .text	00000060 .hidden __floatdidf
01000de0 g     F .text	00000010 getgid
01005098 g     F .text	0000008c __getpid
01004aa0 g     F .text	000005f8 sysconf
0101e290 g     O .data	00000004 stdout
010058dc g     F .text	00000028 .hidden __GI_getpagesize
0101e334 g     O .bss	00000004 daylight
010058b8 g     F .text	00000024 getdtablesize
01005bb8 g     F .text	0000009c fdopendir
01003560 g     F .text	000000fc .hidden __GI_strncmp
010039d0  w    F .text	000000b0 connect
0101e12c g     O .data	00000008 ll_tzname_UNKNOWN
010006d8 g     F .text	00000080 .hidden __GI___uClibc_fini
0101e10c g     O .data	00000018 _time_tzlock
010005c4  w    F .text	00000008 __pthread_mutex_lock
010096c4 g     F .text	00000094 .hidden __xstat32_conv
010006d8 g     F .text	00000080 __uClibc_fini
01008bf0 g     F .text	000000e8 memrchr
01000dd0 g     F .text	00000010 geteuid
01002140 g     F .text	000000bc .hidden __GI_vsnprintf
01003320 g     F .text	00000004 memmove
0100bf48 g     F .text	00000000 .hidden __gnu_Unwind_Save_VFP
0100c068 g     F .text	00000024 .hidden _Unwind_Resume_or_Rethrow
01007cb4 g     F .text	00000124 .hidden __GI_fgetc
01009dc0 g     F .text	0000009c .hidden __stdio_trans2r_o
010059a0 g     F .text	00000034 munmap
0101e2c8 g     O .bss	00000004 __libc_stack_end
01006648 g     F .text	000002cc .hidden __GI_fclose
01006554 g     F .text	000000f4 .hidden __GI_wcsnrtombs
0101dff4 g     O .data.rel.ro	00000004 __stack_chk_guard
01007218 g     F .text	00000108 .hidden _uintmaxtostr
0100bb34 g     F .text	00000008 .hidden __aeabi_unwind_cpp_pr0
0100ad44 g     F .text	00000098 .hidden __gtdf2
01000c50 g     F .text	000000e0 __libc_fcntl
01005270  w    F .text	00000064 __write
01008430 g     F .text	00000138 getc_unlocked
0101e16c g     O .data	00000004 __ctype_b
0100c598 g     F .text	00000010 .hidden _Unwind_GetRegionStart
01004850 g     F .text	00000078 getenv
0100c068 g     F .text	00000024 .hidden ___Unwind_Resume_or_Rethrow
01020ce8 g       .bss	00000000 _bss_end__
0101e0d4 g     O .data	00000004 safe_memory
00000004 g       .tbss	00000004 errno
01000dc0 g     F .text	00000010 getegid
010059d4 g     F .text	0000005c .hidden __GI_sbrk
0100c0b0 g     F .text	00000024 .hidden _Unwind_Backtrace
0100adf8 g     F .text	00000014 .hidden __aeabi_cdcmple
010005f0 g     F .text	000000e8 .hidden __GI___uClibc_init
00000000 g       .tbss	00000004 .hidden __libc_h_errno
010058dc g     F .text	00000028 getpagesize
01005098  w    F .text	0000008c getpid
0100bf2c g     F .text	00000014 .hidden __restore_core_regs
0100bf68 g     F .text	00000000 .hidden __gnu_Unwind_Save_VFP_D_16_to_31
010097f4 g     F .text	00000058 .hidden __GI_lseek64
01007dd8 g     F .text	000000fc fgets
01003880 g     F .text	00000150 __xpg_strerror_r
01005300  w    F .text	00000064 __read
01007cb4 g     F .text	00000124 getc
01020cc0 g     O .bss	00000004 _dl_tls_static_used
010002c4 g       .text	00000000 setup_argument
0100b344 g     F .text	00000008 .hidden _Unwind_GetCFA
01003310 g     F .text	00000004 memcpy
0100addc g     F .text	00000030 .hidden __aeabi_cdrcmple
0101e298 g     O .data	00000000 .hidden __TMC_END__
0100323c g     F .text	00000034 .hidden __GI_fputs_unlocked
0100b558 g     F .text	00000064 .hidden _Unwind_VRS_Set
01001610 g     F .text	00000038 .hidden __GI_ctime
0100a7f0 g     F .text	00000028 .hidden __floatsidf
01007dd8 g     F .text	000000fc .hidden __GI_fgets
0100ad4c g     F .text	00000090 .hidden __ltdf2
010051c4 g     F .text	00000018 .hidden __GI___open_nocancel
01007ed4 g     F .text	00000238 .hidden _stdio_openlist_dec_use
010029b0 g     F .text	00000098 .hidden _ppfs_init
01008ab0 g     F .text	0000002c .hidden __GI_memcmp
01008430 g     F .text	00000138 .hidden __GI_fgetc_unlocked
01008568 g     F .text	000000ac .hidden __GI_fgets_unlocked
010005cc  w    F .text	00000008 __pthread_mutex_init
01000e24 g     F .text	00000010 getuid
01003be0 g     F .text	000007f0 malloc
010051e0  w    F .text	00000064 __open
0100a0c8 g     F .text	000001ec .hidden __udivsi3
01008e30 g     F .text	0000006c isatty
010014b8 g     F .text	000000d4 .hidden __GI_closelog
01002140 g     F .text	000000bc vsnprintf
0100ae70 g     F .text	00000054 .hidden __fixunsdfsi
01005300  w    F .text	00000064 .hidden __GI_read
01005254 g     F .text	00000018 .hidden __GI___write_nocancel
0101e298 g       .bss	00000000 __bss_start__
0100b5ec g     F .text	000000d0 .hidden __gnu_Unwind_Backtrace
0101e0d0 g     O .data	00000000 .hidden __dso_handle
0100a7cc g     F .text	00000024 .hidden __aeabi_ui2d
01007174 g     F .text	00000008 .hidden _cs_close
0100a514 g     F .text	00000000 .hidden __aeabi_drsub
0100bf58 g     F .text	00000000 .hidden __gnu_Unwind_Save_VFP_D
01003b38 g     F .text	00000034 socket
01005790 g     F .text	00000050 .hidden _dl_nothread_init_static_tls
010005dc  w    F .text	00000014 _pthread_cleanup_pop_restore
010064a8 g     F .text	00000090 .hidden __GI_wcrtomb
01000c50 g     F .text	000000e0 .hidden __GI___libc_fcntl
01003330 g     F .text	0000009c .hidden __GI_memset
01005a58 g     F .text	000000d0 .hidden __GI_closedir
0100ae20 g     F .text	00000014 .hidden __aeabi_dcmplt
0100bb4c g     F .text	000003e0 .hidden _Unwind_VRS_Pop
0100bb44  w    F .text	00000008 .hidden __aeabi_unwind_cpp_pr2
01008bd8  w    F .text	00000018 mempcpy
010033d0 g     F .text	0000001c .hidden __GI_strcoll
01005270  w    F .text	00000064 .hidden __GI_write
0100c0b0 g     F .text	00000024 .hidden ___Unwind_Backtrace
0100a818 g     F .text	00000048 .hidden __extendsfdf2
01005300 g     F .text	00000064 __libc_read
0100ab40 g     F .text	00000204 .hidden __aeabi_ddiv
01005c54 g     F .text	000000c0 .hidden __GI_opendir
01005414 g     F .text	00000078 .hidden __libc_disable_asynccancel
0100c7ab g     O .rodata	00000b5a .hidden _string_syserrmsgs
0100a520 g     F .text	000002ac .hidden __adddf3
010051e0  w    F .text	00000064 .hidden __GI_open
01003450 g     F .text	000000f4 .hidden __GI_strchr
010208c4 g     O .bss	00000030 .hidden _time_tzinfo
0100a8d4 g     F .text	0000026c .hidden __aeabi_dmul
0100596c g     F .text	00000034 lseek
01020cc4 g     O .bss	00000004 _dl_tls_static_align
01008e9c g     F .text	000000bc .hidden __GI_tcgetattr
0101e2c4 g     O .bss	00000004 __environ
01005818 g     F .text	00000068 mmap
01000d64  w    F .text	0000005c _Exit
01006554 g     F .text	000000f4 wcsnrtombs
0100c020 g     F .text	00000024 .hidden ___Unwind_RaiseException
01020cc8 g     O .bss	00000004 _dl_tls_max_dtv_idx
01003a80  w    F .text	000000b8 send
01008430 g     F .text	00000138 __fgetc_unlocked
01000360 g     F .text	00000110 abort
0100c044 g     F .text	00000024 .hidden ___Unwind_Resume
0100a7cc g     F .text	00000024 .hidden __floatunsidf
01008f58 g     F .text	00000034 .hidden __sigjmp_save
01000000 g     F .text	00000128 __stack_chk_fail
0101e124 g     O .data	00000008 tzname
01000c50  w    F .text	000000e0 .hidden __GI_fcntl
01006538 g     F .text	0000001c .hidden __GI_wcsrtombs
01003270 g     F .text	000000a0 .hidden __GI_fwrite_unlocked
01000de0 g     F .text	00000010 .hidden __GI_getgid
010051c4 g     F .text	00000018 __open_nocancel
00010114 g     F .init	00000000 _init
01005300  w    F .text	00000064 .hidden __GI___read
010058a0 g     F .text	00000018 __sigsetjmp
01005778 g     F .text	00000018 __tls_get_addr
01003754 g     F .text	000000d4 strnlen
0100bf70 g     F .text	00000000 .hidden __gnu_Unwind_Restore_WMMXD
01008bd8 g     F .text	00000018 .hidden __GI_mempcpy
01020944 g     O .bss	00000378 __malloc_state
01003828  w    F .text	00000044 strrchr
01003a80  w    F .text	000000b8 .hidden __GI_send
01008f8c g     F .text	00000114 calloc
00000000 g       .tbss	00000004 h_errno
01001490 g     F .text	00000028 .hidden __GI_syslog
010005c4  w    F .text	00000008 __pthread_mutex_unlock
010048c8 g     F .text	000000a0 .hidden __GI_exit
0101e2b8 g     O .bss	00000004 .hidden __app_fini
0101e344 g     O .bss	00000004 .hidden __exit_cleanup
01008620 g     F .text	00000000 .hidden _memcpy
01003828  w    F .text	00000044 rindex
01006170 g     F .text	00000144 .hidden __GI_asctime_r
01005270  w    F .text	00000064 write
0101e2c4  w    O .bss	00000004 environ
01005150  w    F .text	00000064 .hidden __GI_close
010094bc g     F .text	00000068 fstat
0100a520 g     F .text	000002ac .hidden __aeabi_dadd
01005938 g     F .text	00000034 kill
0100323c g     F .text	00000034 fputs_unlocked
010005c4  w    F .text	00000008 __pthread_mutex_trylock
0100ad4c g     F .text	00000090 .hidden __ledf2
01001610 g     F .text	00000038 ctime
01009474 g     F .text	00000048 .hidden __GI_brk
01020ccc g     O .bss	00000004 _dl_tls_static_size
0100a860 g     F .text	00000074 .hidden __aeabi_ul2d
0100bf40 g     F .text	00000000 .hidden __gnu_Unwind_Restore_VFP
0101e280 g     O .data	00000004 _stdio_openlist
01000e34 g     F .text	00000084 .hidden __GI_sigprocmask
010099bc g     F .text	0000001c .hidden __GI_fseek
010208f4 g     O .bss	00000028 .hidden _custom_printf_arginfo
01005270 g     F .text	00000064 .hidden __GI___libc_write
0100a2d4 g     F .text	00000000 .hidden __aeabi_idiv
010099bc g     F .text	0000001c fseeko
0101e8a0 g     O .bss	00000004 _stdio_openlist_del_count
0100c044 g     F .text	00000024 .hidden _Unwind_Resume
0100b4b0 g     F .text	00000018 .hidden _Unwind_DeleteException
0100b4ac g     F .text	00000004 .hidden _Unwind_Complete
010099bc g     F .text	0000001c fseek
010095f4 g     F .text	00000038 mremap
01005938 g     F .text	00000034 .hidden __GI_kill
010033d0 g     F .text	0000001c .hidden __GI_strcmp
010051e0  w    F .text	00000064 .hidden __GI___open
01003320 g     F .text	00000004 .hidden __GI_memmove
010052e4 g     F .text	00000018 __read_nocancel
0100ae5c g     F .text	00000014 .hidden __aeabi_dcmpgt
01009b7c g     F .text	0000007c .hidden __stdio_READ
01008adc  w    F .text	000000fc memchr
0100576c  w    F .text	0000000c __pthread_initialize_minimal
01020ce8 g       .bss	00000000 __bss_end__
0101e288 g     O .data	00000004 __stdin
0101e294 g     O .data	00000004 stdin
0100ae48 g     F .text	00000014 .hidden __aeabi_dcmpge
01008e30 g     F .text	0000006c .hidden __GI_isatty
01020cd0 g     O .bss	00000004 _dl_tls_dtv_slotinfo_list
0101e134 g     O .data	00000004 .hidden _custom_printf_spec
01001648 g     F .text	000000a0 .hidden __GI_localtime_r
0100a51c g     F .text	000002b0 .hidden __aeabi_dsub
0101e0f8  w    O .data	00000004 __progname
0101e330 g     O .bss	00000004 timezone
01000140 g     F .text	00000000 _start
010052e4 g     F .text	00000018 .hidden __GI___read_nocancel
01009524 g     F .text	000000d0 .hidden __GI_ioctl
0100a860 g     F .text	00000074 .hidden __floatundidf
01004850 g     F .text	00000078 .hidden __GI_getenv
00000004 g       .tbss	00000004 .hidden __libc_errno
01005300  w    F .text	00000064 read
0100c168 g     F .text	000003f0 .hidden __gnu_unwind_execute
01009758 g     F .text	0000009c .hidden __xstat64_conv
01000ff0 g     F .text	00000080 openlog
01003310 g     F .text	00000004 .hidden __GI_memcpy
010033d0 g     F .text	0000001c strcoll
010014b8 g     F .text	000000d4 closelog
01003560  w    F .text	000000fc strncmp
0100bf50 g     F .text	00000000 .hidden __gnu_Unwind_Restore_VFP_D
01006538 g     F .text	0000001c wcsrtombs
0101e174 g     O .data	00000004 _stdio_user_locking
01001dbc g     F .text	00000358 .hidden __time_localtime_tzi
0100365c g     F .text	000000f8 strncpy
01005150 g     F .text	00000064 .hidden __GI___libc_close
0101e0f8 g     O .data	00000004 program_invocation_short_name
0101e170 g     O .data	00000004 .hidden __GI___C_ctype_b
010090a0 g     F .text	0000035c realloc
0100b418 g     F .text	00000074 .hidden __gnu_Unwind_Resume
0100365c g     F .text	000000f8 .hidden __GI_strncpy
01020cd4 g     O .bss	00000001 _dl_tls_dtv_gaps
01003a80 g     F .text	000000b8 __libc_send
01003880 g     F .text	00000150 .hidden __GI___xpg_strerror_r
0100a7f0 g     F .text	00000028 .hidden __aeabi_i2d
01005d14 g     F .text	000000c8 readdir64
01005904 g     F .text	00000034 .hidden __GI_getrlimit
0100bf60 g     F .text	00000000 .hidden __gnu_Unwind_Restore_VFP_D_16_to_31
01003544 g     F .text	0000001c .hidden __GI_strcpy
01008ab0 g     F .text	0000002c memcmp
01009cdc g     F .text	000000b8 .hidden __stdio_adjust_position
01004620 g     F .text	0000003c malloc_trim
010022cc g     F .text	000006e4 .hidden _vfprintf_internal
01000bd0 g     F .text	00000080 .hidden __GI___fcntl_nocancel
0100c020 g     F .text	00000024 .hidden _Unwind_RaiseException
0100aec4  w    F .text	00000010 .hidden __aeabi_ldiv0
0100ab40 g     F .text	00000204 .hidden __divdf3
01009d94 g     F .text	0000002c .hidden __stdio_rfill
01000b2c  w    F .text	00000084 sigaction
01020ce0 g     O .bss	00000004 _dl_phdr
01008430 g     F .text	00000138 .hidden __GI_getc_unlocked
010005f0 g     F .text	000000e8 __uClibc_init
010059a0 g     F .text	00000034 .hidden __GI_munmap
0100a8d4 g     F .text	0000026c .hidden __muldf3
010071e8 g     F .text	00000030 .hidden _store_inttype
010058dc g     F .text	00000028 __getpagesize
010095f4 g     F .text	00000038 .hidden __GI_mremap
01005880 g     F .text	00000020 .hidden __syscall_error
0101e0f0 g     O .data	00000004 .hidden __uclibc_progname
01000dc0 g     F .text	00000010 .hidden __GI_getegid
0101e138 g     O .data	00000018 __malloc_lock
01000758 g     F .text	000003d4 __uClibc_main
010059d4 g     F .text	0000005c sbrk
0101e2bc g     O .bss	00000004 .hidden __rtld_fini
01005150 g     F .text	00000064 __libc_close
01005098  w    F .text	0000008c .hidden __GI_getpid
01003450  w    F .text	000000f4 index
010005d4  w    F .text	00000008 _pthread_cleanup_push_defer
01000df0 g     F .text	00000034 gettimeofday
01006914 g     F .text	0000000c fopen
0101e298 g       .bss	00000000 __bss_start
01006170 g     F .text	00000144 asctime_r
010051e0 g     F .text	00000064 __libc_open
01008cd8 g     F .text	000000d0 .hidden __GI_strchrnul
01003330 g     F .text	0000009c memset
01003b38 g     F .text	00000034 .hidden __GI_socket
01000138 g     F .text	00000008 main
0100386c g     F .text	00000014 __glibc_strerror_r
01006d54 g     F .text	00000128 .hidden __stdio_fwrite
010056d0 g     F .text	0000009c _dl_tls_setup
01000308  w    F .text	0000002c test_big_return_value
01020cd8 g     O .bss	00000004 _dl_tls_generation
0100a0c8 g     F .text	00000000 .hidden __aeabi_uidiv
01006648 g     F .text	000002cc fclose
01000d30 g     F .text	00000034 __syscall_rt_sigaction
0100962c g     F .text	00000098 .hidden __xstat_conv
01008e9c g     F .text	000000bc tcgetattr
01005a30 g     F .text	00000028 time
01005c54 g     F .text	000000c0 opendir
0100a874 g     F .text	00000060 .hidden __aeabi_l2d
01000360 g     F .text	00000110 .hidden __GI_abort
01005270  w    F .text	00000064 .hidden __GI___write
01001490 g     F .text	00000028 syslog
01020ce8 g       .bss	00000000 __end__
010002d4 g     F .text	00000010 test_argument
0100a2d4 g     F .text	00000220 .hidden __divsi3
0100b3f4 g     F .text	00000024 .hidden __gnu_Unwind_ForcedUnwind
01005134 g     F .text	00000018 .hidden __GI___close_nocancel
01007138 g     F .text	0000003c .hidden _cs_seek
01000d64 g     F .text	0000005c .hidden __GI__exit
010033d0 g     F .text	0000001c strcmp
01003828 g     F .text	00000044 .hidden __GI_strrchr
01006160 g     F .text	00000010 .hidden __GI_asctime
01000bbc g     F .text	00000000 __default_sa_restorer
0101e0cc  w      .data	00000000 data_start
01004aa0 g     F .text	000005f8 .hidden __GI_sysconf
0100b48c g     F .text	00000020 .hidden __gnu_Unwind_Resume_or_Rethrow
0100ad54 g     F .text	00000088 .hidden __nedf2
01005364 g     F .text	000000b0 .hidden __libc_enable_asynccancel
01006920 g     F .text	00000434 .hidden _stdio_fopen
0100c5c4 g     F .fini	00000000 _fini
0100bf2c g     F .text	00000014 .hidden restore_core_regs
01005254 g     F .text	00000018 __write_nocancel
0100c00c g     F .text	00000000 .hidden __gnu_Unwind_Save_WMMXC
01005818 g     F .text	00000068 .hidden __GI_mmap
01007cb4 g     F .text	00000124 fgetc
01002114 g     F .text	0000002c sprintf
01000bc8 g     F .text	00000000 __default_rt_sa_restorer
01003880  w    F .text	00000150 strerror_r
01008da8 g     F .text	0000003c strcspn
01020cbc g     O .bss	00000004 .hidden __libc_multiple_threads
01006e7c g     F .text	0000011c .hidden _stdio_term
01000130 g     F .text	00000008 .hidden _Unwind_GetTextRelBase
0101e28c g     O .data	00000004 stderr
01007128 g     F .text	00000008 .hidden _cs_read
01005d14 g     F .text	000000c8 .hidden __GI_readdir64
0101e170 g     O .data	00000004 __C_ctype_b
0100158c g     F .text	00000084 setlogmask
0100548c g     F .text	00000244 __libc_setup_tls
01002a80 g     F .text	00000188 .hidden _ppfs_setargs
01005134 g     F .text	00000018 __close_nocancel
0101e168 g     O .data	00000004 _dl_init_static_tls
0101e150 g     O .data	00000018 __atexit_lock
01000bd0 g     F .text	00000080 __fcntl_nocancel
01001d94 g     F .text	00000028 .hidden __GI_tzset
01001774 g     F .text	00000620 .hidden _time_tzset
0100c5a8 g     F .text	0000001c .hidden _Unwind_GetLanguageSpecificData
0100ae70 g     F .text	00000054 .hidden __aeabi_d2uiz
010099d8 g     F .text	000001a4 .hidden __GI_fseeko64
01020cdc g     O .bss	00000004 _dl_tls_static_nelem
01001648 g     F .text	000000a0 localtime_r
0100810c g     F .text	00000324 fflush_unlocked
010070f8 g     F .text	00000030 .hidden __stdio_wcommit
01008430 g     F .text	00000138 .hidden __GI___fgetc_unlocked
0100b4c8 g     F .text	00000064 .hidden _Unwind_VRS_Get
01003270 g     F .text	000000a0 fwrite_unlocked
0101e2c0 g     O .bss	00000004 __pagesize
0100bff8 g     F .text	00000000 .hidden __gnu_Unwind_Restore_WMMXC
0101e8b4 g     O .bss	0000000c _stdio_openlist_add_lock
0100a2b4 g     F .text	00000020 .hidden __aeabi_uidivmod
010058b8 g     F .text	00000024 .hidden __GI_getdtablesize
0100ae0c g     F .text	00000014 .hidden __aeabi_dcmpeq
01005150  w    F .text	00000064 __close
0100c558 g     F .text	00000040 .hidden __gnu_unwind_frame
0100c08c g     F .text	00000024 .hidden _Unwind_ForcedUnwind
0101e298 g       .data	00000000 _edata
0101e284 g     O .data	00000004 __stdout
01005150  w    F .text	00000064 .hidden __GI___close
01008bf0 g     F .text	000000e8 .hidden __GI_memrchr
0100810c g     F .text	00000324 .hidden __GI_fflush_unlocked
010094bc g     F .text	00000068 .hidden __GI_fstat
01020ce8 g       .bss	00000000 _end
01002a48 g     F .text	00000038 .hidden _ppfs_prepargs
01000334  w    F .text	00000028 setup_big_return_value
01008de4 g     F .text	0000004c .hidden __GI_strspn
01008430 g     F .text	00000138 fgetc_unlocked
01007130 g     F .text	00000008 .hidden _cs_write
010039d0  w    F .text	000000b0 .hidden __GI_connect
010208c0 g     O .bss	00000004 .hidden __curbrk
01020ce4 g     O .bss	00000004 _dl_phnum
01007320 g     F .text	00000994 .hidden _fpmaxtostr
010051e0 g     F .text	00000064 .hidden __GI___libc_open
010048c8 g     F .text	000000a0 exit
01009bf8 g     F .text	000000e4 .hidden __stdio_WRITE
01006f98 g     F .text	0000007c .hidden _stdio_init
01000dd0 g     F .text	00000010 .hidden __GI_geteuid
0100bfb4 g     F .text	00000000 .hidden __gnu_Unwind_Save_WMMXD
01009474 g     F .text	00000048 brk
010057e0 g     F .text	00000038 _dl_aux_init
01000df0 g     F .text	00000034 .hidden __GI_gettimeofday
0101e8a8 g     O .bss	0000000c _stdio_openlist_del_lock
0100aec4  w    F .text	00000010 .hidden __aeabi_idiv0
0102091c g     O .bss	00000028 .hidden _custom_printf_handler
01001070 g     F .text	00000420 vsyslog
01000bb0 g     F .text	00000008 _setjmp
01008568 g     F .text	000000ac fgets_unlocked
01000d64 g     F .text	0000005c _exit
0100596c g     F .text	00000034 .hidden __GI_lseek
01008de4 g     F .text	0000004c strspn
0100984c g     F .text	00000170 .hidden __getdents64
010093fc g     F .text	00000078 .hidden __lll_lock_wait_private
010033f0 g     F .text	00000060 strlen
010097f4 g     F .text	00000058 lseek64
010051e0  w    F .text	00000064 open
0100bb3c  w    F .text	00000008 .hidden __aeabi_unwind_cpp_pr1
0101e0f4 g     O .data	00000004 program_invocation_name
0100adf8 g     F .text	00000014 .hidden __aeabi_cdcmpeq
01005270 g     F .text	00000064 __libc_write
0100ad44 g     F .text	00000098 .hidden __gedf2
01004488 g     F .text	00000198 .hidden __malloc_consolidate
01002c08 g     F .text	00000634 .hidden _ppfs_parsespec
01000e24 g     F .text	00000010 .hidden __GI_getuid
0101dff8 g     O .data.rel.ro	00000008 ll_tzname_UTC
01000ff0 g     F .text	00000080 .hidden __GI_openlog
01007014 g     F .text	000000e4 .hidden __stdio_trans2w_o
01005e4c g     F .text	00000314 .hidden __GI_config_read
01003450  w    F .text	000000f4 strchr
0100a818 g     F .text	00000048 .hidden __aeabi_f2d
01000128 g     F .text	00000008 .hidden _Unwind_GetDataRelBase
01000470 g     F .text	00000118 .hidden __GI_raise
0101e0cc g       .data	00000000 __data_start
01005ddc g     F .text	0000003c .hidden __GI_config_open
01005a58 g     F .text	000000d0 closedir
01003754 g     F .text	000000d4 .hidden __GI_strnlen
010062b4 g     F .text	000001f4 .hidden _time_t2tm
0100a51c g     F .text	000002b0 .hidden __subdf3
01005300 g     F .text	00000064 .hidden __GI___libc_read
01008cd8 g     F .text	000000d0 strchrnul
010002e4  w    F .text	0000000c test_small_return_value
01000c50  w    F .text	000000e0 fcntl
01001d94 g     F .text	00000028 tzset
0100a4f4 g     F .text	00000020 .hidden __aeabi_idivmod
01001070 g     F .text	00000420 .hidden __GI_vsyslog
010099d8 g     F .text	000001a4 fseeko64
01002114 g     F .text	0000002c .hidden __GI_sprintf
010064a8 g     F .text	00000090 wcrtomb
01005150  w    F .text	00000064 close
01005e18 g     F .text	00000034 .hidden __GI_config_close
010039d0 g     F .text	000000b0 __libc_connect
010033f0 g     F .text	00000060 .hidden __GI_strlen
0101e0f4  w    O .data	00000004 __progname_full
0100717c g     F .text	0000006c .hidden _load_inttype
01000470 g     F .text	00000118 raise
0100465c g     F .text	000001f4 free
01008da8 g     F .text	0000003c .hidden __GI_strcspn
01000e34 g     F .text	00000084 sigprocmask



Disassembly of section .text:

01000000 <__stack_chk_fail>:
 1000000:	e52de004 	push	{lr}		; (str lr, [sp, #-4]!)
 1000004:	e3a02000 	mov	r2, #0
 1000008:	e24dd02c 	sub	sp, sp, #44	; 0x2c
 100000c:	e1a00002 	mov	r0, r2
 1000010:	e28d100c 	add	r1, sp, #12
 1000014:	e3e03020 	mvn	r3, #32
 1000018:	e3e05000 	mvn	r5, #0
 100001c:	e58d300c 	str	r3, [sp, #12]
 1000020:	e58d5010 	str	r5, [sp, #16]
 1000024:	eb000382 	bl	1000e34 <__GI_sigprocmask>
 1000028:	e3a02014 	mov	r2, #20
 100002c:	e08d4002 	add	r4, sp, r2
 1000030:	e3a01000 	mov	r1, #0
 1000034:	e59f60d4 	ldr	r6, [pc, #212]	; 1000110 <__stack_chk_fail+0x110>
 1000038:	e1a00004 	mov	r0, r4
 100003c:	eb000cbb 	bl	1003330 <__GI_memset>
 1000040:	e1a01004 	mov	r1, r4
 1000044:	e59f40c8 	ldr	r4, [pc, #200]	; 1000114 <__stack_chk_fail+0x114>
 1000048:	e3a02000 	mov	r2, #0
 100004c:	e3a00006 	mov	r0, #6
 1000050:	e58d5020 	str	r5, [sp, #32]
 1000054:	e08f4004 	add	r4, pc, r4
 1000058:	e58d5024 	str	r5, [sp, #36]	; 0x24
 100005c:	eb0002b2 	bl	1000b2c <__libc_sigaction>
 1000060:	e59f30b0 	ldr	r3, [pc, #176]	; 1000118 <__stack_chk_fail+0x118>
 1000064:	e1a00004 	mov	r0, r4
 1000068:	e08f6006 	add	r6, pc, r6
 100006c:	e79f5003 	ldr	r5, [pc, r3]
 1000070:	eb000cde 	bl	10033f0 <__GI_strlen>
 1000074:	e1a01004 	mov	r1, r4
 1000078:	e1a02000 	mov	r2, r0
 100007c:	e3a00002 	mov	r0, #2
 1000080:	eb00147a 	bl	1005270 <__GI___libc_write>
 1000084:	e1a00005 	mov	r0, r5
 1000088:	eb000cd8 	bl	10033f0 <__GI_strlen>
 100008c:	e1a01005 	mov	r1, r5
 1000090:	e1a02000 	mov	r2, r0
 1000094:	e3a00002 	mov	r0, #2
 1000098:	eb001474 	bl	1005270 <__GI___libc_write>
 100009c:	e1a00006 	mov	r0, r6
 10000a0:	eb000cd2 	bl	10033f0 <__GI_strlen>
 10000a4:	e1a01006 	mov	r1, r6
 10000a8:	e1a02000 	mov	r2, r0
 10000ac:	e3a00002 	mov	r0, #2
 10000b0:	eb00146e 	bl	1005270 <__GI___libc_write>
 10000b4:	e59f1060 	ldr	r1, [pc, #96]	; 100011c <__stack_chk_fail+0x11c>
 10000b8:	e3a02003 	mov	r2, #3
 10000bc:	e3a00002 	mov	r0, #2
 10000c0:	e08f1001 	add	r1, pc, r1
 10000c4:	eb001469 	bl	1005270 <__GI___libc_write>
 10000c8:	e59f0050 	ldr	r0, [pc, #80]	; 1000120 <__stack_chk_fail+0x120>
 10000cc:	e3a02008 	mov	r2, #8
 10000d0:	e3a01003 	mov	r1, #3
 10000d4:	e08f0000 	add	r0, pc, r0
 10000d8:	eb0003c4 	bl	1000ff0 <__GI_openlog>
 10000dc:	e59f1040 	ldr	r1, [pc, #64]	; 1000124 <__stack_chk_fail+0x124>
 10000e0:	e1a03005 	mov	r3, r5
 10000e4:	e1a02004 	mov	r2, r4
 10000e8:	e08f1001 	add	r1, pc, r1
 10000ec:	e3a00006 	mov	r0, #6
 10000f0:	e58d6000 	str	r6, [sp]
 10000f4:	eb0004e5 	bl	1001490 <__GI_syslog>
 10000f8:	eb0004ee 	bl	10014b8 <__GI_closelog>
 10000fc:	eb0013e5 	bl	1005098 <__getpid>
 1000100:	e3a01006 	mov	r1, #6
 1000104:	eb00160b 	bl	1005938 <__GI_kill>
 1000108:	e3a0007f 	mov	r0, #127	; 0x7f
 100010c:	eb000314 	bl	1000d64 <__GI__exit>
 1000110:	0000c5a8 	.word	0x0000c5a8
 1000114:	0000c5c8 	.word	0x0000c5c8
 1000118:	0001e07c 	.word	0x0001e07c
 100011c:	0000c53f 	.word	0x0000c53f
 1000120:	0000c52f 	.word	0x0000c52f
 1000124:	0000c51f 	.word	0x0000c51f

01000128 <_Unwind_GetDataRelBase>:
 1000128:	e92d4010 	push	{r4, lr}
 100012c:	eb00008b 	bl	1000360 <__GI_abort>

01000130 <_Unwind_GetTextRelBase>:
 1000130:	e92d4010 	push	{r4, lr}
 1000134:	ebfffffb 	bl	1000128 <_Unwind_GetDataRelBase>

01000138 <main>:
 1000138:	e3a00000 	mov	r0, #0
 100013c:	e12fff1e 	bx	lr

01000140 <_start>:
 1000140:	e3a0b000 	mov	fp, #0
 1000144:	e3a0e000 	mov	lr, #0
 1000148:	e49d1004 	pop	{r1}		; (ldr r1, [sp], #4)
 100014c:	e1a0200d 	mov	r2, sp
 1000150:	e52d2004 	push	{r2}		; (str r2, [sp, #-4]!)
 1000154:	e52d0004 	push	{r0}		; (str r0, [sp, #-4]!)
 1000158:	e59fc010 	ldr	ip, [pc, #16]	; 1000170 <_start+0x30>
 100015c:	e52dc004 	push	{ip}		; (str ip, [sp, #-4]!)
 1000160:	e59f000c 	ldr	r0, [pc, #12]	; 1000174 <_start+0x34>
 1000164:	e59f300c 	ldr	r3, [pc, #12]	; 1000178 <_start+0x38>
 1000168:	ea00017a 	b	1000758 <__uClibc_main>
 100016c:	eb00007b 	bl	1000360 <__GI_abort>
 1000170:	0100c5c4 	.word	0x0100c5c4
 1000174:	01000138 	.word	0x01000138
 1000178:	00010114 	.word	0x00010114

0100017c <deregister_tm_clones>:
 100017c:	e59f002c 	ldr	r0, [pc, #44]	; 10001b0 <deregister_tm_clones+0x34>
 1000180:	e59f302c 	ldr	r3, [pc, #44]	; 10001b4 <deregister_tm_clones+0x38>
 1000184:	e08f0000 	add	r0, pc, r0
 1000188:	e59f2028 	ldr	r2, [pc, #40]	; 10001b8 <deregister_tm_clones+0x3c>
 100018c:	e08f3003 	add	r3, pc, r3
 1000190:	e1530000 	cmp	r3, r0
 1000194:	e08f2002 	add	r2, pc, r2
 1000198:	012fff1e 	bxeq	lr
 100019c:	e59f3018 	ldr	r3, [pc, #24]	; 10001bc <deregister_tm_clones+0x40>
 10001a0:	e7923003 	ldr	r3, [r2, r3]
 10001a4:	e3530000 	cmp	r3, #0
 10001a8:	012fff1e 	bxeq	lr
 10001ac:	e12fff13 	bx	r3
 10001b0:	0001e10c 	.word	0x0001e10c
 10001b4:	0001e104 	.word	0x0001e104
 10001b8:	0001de64 	.word	0x0001de64
 10001bc:	00000080 	.word	0x00000080

010001c0 <register_tm_clones>:
 10001c0:	e59f0038 	ldr	r0, [pc, #56]	; 1000200 <register_tm_clones+0x40>
 10001c4:	e59f1038 	ldr	r1, [pc, #56]	; 1000204 <register_tm_clones+0x44>
 10001c8:	e08f0000 	add	r0, pc, r0
 10001cc:	e59f2034 	ldr	r2, [pc, #52]	; 1000208 <register_tm_clones+0x48>
 10001d0:	e08f1001 	add	r1, pc, r1
 10001d4:	e0411000 	sub	r1, r1, r0
 10001d8:	e08f2002 	add	r2, pc, r2
 10001dc:	e1a03fa1 	lsr	r3, r1, #31
 10001e0:	e0831141 	add	r1, r3, r1, asr #2
 10001e4:	e1b010c1 	asrs	r1, r1, #1
 10001e8:	012fff1e 	bxeq	lr
 10001ec:	e59f3018 	ldr	r3, [pc, #24]	; 100020c <register_tm_clones+0x4c>
 10001f0:	e7923003 	ldr	r3, [r2, r3]
 10001f4:	e3530000 	cmp	r3, #0
 10001f8:	012fff1e 	bxeq	lr
 10001fc:	e12fff13 	bx	r3
 1000200:	0001e0c8 	.word	0x0001e0c8
 1000204:	0001e0c0 	.word	0x0001e0c0
 1000208:	0001de20 	.word	0x0001de20
 100020c:	00000060 	.word	0x00000060

01000210 <__do_global_dtors_aux>:
 1000210:	e59f304c 	ldr	r3, [pc, #76]	; 1000264 <__do_global_dtors_aux+0x54>
 1000214:	e92d4010 	push	{r4, lr}
 1000218:	e08f3003 	add	r3, pc, r3
 100021c:	e59f4044 	ldr	r4, [pc, #68]	; 1000268 <__do_global_dtors_aux+0x58>
 1000220:	e5d33000 	ldrb	r3, [r3]
 1000224:	e08f4004 	add	r4, pc, r4
 1000228:	e3530000 	cmp	r3, #0
 100022c:	18bd8010 	popne	{r4, pc}
 1000230:	ebffffd1 	bl	100017c <deregister_tm_clones>
 1000234:	e59f3030 	ldr	r3, [pc, #48]	; 100026c <__do_global_dtors_aux+0x5c>
 1000238:	e7943003 	ldr	r3, [r4, r3]
 100023c:	e3530000 	cmp	r3, #0
 1000240:	0a000002 	beq	1000250 <__do_global_dtors_aux+0x40>
 1000244:	e59f0024 	ldr	r0, [pc, #36]	; 1000270 <__do_global_dtors_aux+0x60>
 1000248:	e08f0000 	add	r0, pc, r0
 100024c:	e320f000 	nop	{0}
 1000250:	e59f301c 	ldr	r3, [pc, #28]	; 1000274 <__do_global_dtors_aux+0x64>
 1000254:	e3a02001 	mov	r2, #1
 1000258:	e08f3003 	add	r3, pc, r3
 100025c:	e5c32000 	strb	r2, [r3]
 1000260:	e8bd8010 	pop	{r4, pc}
 1000264:	0001e078 	.word	0x0001e078
 1000268:	0001ddd4 	.word	0x0001ddd4
 100026c:	00000058 	.word	0x00000058
 1000270:	0000d664 	.word	0x0000d664
 1000274:	0001e038 	.word	0x0001e038

01000278 <frame_dummy>:
 1000278:	e59f3034 	ldr	r3, [pc, #52]	; 10002b4 <frame_dummy+0x3c>
 100027c:	e59f2034 	ldr	r2, [pc, #52]	; 10002b8 <frame_dummy+0x40>
 1000280:	e08f3003 	add	r3, pc, r3
 1000284:	e7933002 	ldr	r3, [r3, r2]
 1000288:	e3530000 	cmp	r3, #0
 100028c:	0a000007 	beq	10002b0 <frame_dummy+0x38>
 1000290:	e59f1024 	ldr	r1, [pc, #36]	; 10002bc <frame_dummy+0x44>
 1000294:	e59f0024 	ldr	r0, [pc, #36]	; 10002c0 <frame_dummy+0x48>
 1000298:	e92d4010 	push	{r4, lr}
 100029c:	e08f1001 	add	r1, pc, r1
 10002a0:	e08f0000 	add	r0, pc, r0
 10002a4:	e320f000 	nop	{0}
 10002a8:	e8bd4010 	pop	{r4, lr}
 10002ac:	eaffffc3 	b	10001c0 <register_tm_clones>
 10002b0:	eaffffc2 	b	10001c0 <register_tm_clones>
 10002b4:	0001dd78 	.word	0x0001dd78
 10002b8:	000000c8 	.word	0x000000c8
 10002bc:	0001dff8 	.word	0x0001dff8
 10002c0:	0000d60c 	.word	0x0000d60c

010002c4 <setup_argument>:
 10002c4:	e52de004 	push	{lr}		; (str lr, [sp, #-4]!)
 10002c8:	e59f008c 	ldr	r0, [pc, #140]	; 100035c <setup_big_return_value+0x28>
 10002cc:	eb000000 	bl	10002d4 <test_argument>
 10002d0:	e49df004 	pop	{pc}		; (ldr pc, [sp], #4)

010002d4 <test_argument>:
 10002d4:	e30e30d4 	movw	r3, #57556	; 0xe0d4
 10002d8:	e3403101 	movt	r3, #257	; 0x101
 10002dc:	e5830000 	str	r0, [r3]
 10002e0:	e12fff1e 	bx	lr

010002e4 <test_small_return_value>:
 10002e4:	e30b0fc0 	movw	r0, #49088	; 0xbfc0
 10002e8:	e3490dae 	movt	r0, #40366	; 0x9dae
 10002ec:	e12fff1e 	bx	lr

010002f0 <setup_small_return_value>:
 10002f0:	e92d4010 	push	{r4, lr}
 10002f4:	ebfffffa 	bl	10002e4 <test_small_return_value>
 10002f8:	e30e30d4 	movw	r3, #57556	; 0xe0d4
 10002fc:	e3403101 	movt	r3, #257	; 0x101
 1000300:	e5830000 	str	r0, [r3]
 1000304:	e8bd8010 	pop	{r4, pc}

01000308 <test_big_return_value>:
 1000308:	e30cc5d8 	movw	ip, #50648	; 0xc5d8
 100030c:	e340c100 	movt	ip, #256	; 0x100
 1000310:	e92d4010 	push	{r4, lr}
 1000314:	e1a04000 	mov	r4, r0
 1000318:	e8bc000f 	ldm	ip!, {r0, r1, r2, r3}
 100031c:	e1a0e004 	mov	lr, r4
 1000320:	e8ae000f 	stmia	lr!, {r0, r1, r2, r3}
 1000324:	e89c0003 	ldm	ip, {r0, r1}
 1000328:	e88e0003 	stm	lr, {r0, r1}
 100032c:	e1a00004 	mov	r0, r4
 1000330:	e8bd8010 	pop	{r4, pc}

01000334 <setup_big_return_value>:
 1000334:	e52de004 	push	{lr}		; (str lr, [sp, #-4]!)
 1000338:	e24dd01c 	sub	sp, sp, #28
 100033c:	e1a0000d 	mov	r0, sp
 1000340:	ebfffff0 	bl	1000308 <test_big_return_value>
 1000344:	e59d2010 	ldr	r2, [sp, #16]
 1000348:	e30e30d4 	movw	r3, #57556	; 0xe0d4
 100034c:	e3403101 	movt	r3, #257	; 0x101
 1000350:	e5832000 	str	r2, [r3]
 1000354:	e28dd01c 	add	sp, sp, #28
 1000358:	e49df004 	pop	{pc}		; (ldr pc, [sp], #4)
 100035c:	15263748 	.word	0x15263748

01000360 <__GI_abort>:
 1000360:	e59f00f4 	ldr	r0, [pc, #244]	; 100045c <__GI_abort+0xfc>
 1000364:	e52de004 	push	{lr}		; (str lr, [sp, #-4]!)
 1000368:	e08f0000 	add	r0, pc, r0
 100036c:	e24dd024 	sub	sp, sp, #36	; 0x24
 1000370:	eb000093 	bl	10005c4 <__pthread_mutex_lock>
 1000374:	e3a02000 	mov	r2, #0
 1000378:	e28d1004 	add	r1, sp, #4
 100037c:	e3a00001 	mov	r0, #1
 1000380:	e3a03020 	mov	r3, #32
 1000384:	e58d2008 	str	r2, [sp, #8]
 1000388:	e58d3004 	str	r3, [sp, #4]
 100038c:	eb0002a8 	bl	1000e34 <__GI_sigprocmask>
 1000390:	e59f30c8 	ldr	r3, [pc, #200]	; 1000460 <__GI_abort+0x100>
 1000394:	e08f3003 	add	r3, pc, r3
 1000398:	e5932000 	ldr	r2, [r3]
 100039c:	e3520000 	cmp	r2, #0
 10003a0:	1a000009 	bne	10003cc <__GI_abort+0x6c>
 10003a4:	e3a02001 	mov	r2, #1
 10003a8:	e5832000 	str	r2, [r3]
 10003ac:	e59f40b0 	ldr	r4, [pc, #176]	; 1000464 <__GI_abort+0x104>
 10003b0:	e08f4004 	add	r4, pc, r4
 10003b4:	e1a00004 	mov	r0, r4
 10003b8:	eb000081 	bl	10005c4 <__pthread_mutex_lock>
 10003bc:	e3a00006 	mov	r0, #6
 10003c0:	eb00002a 	bl	1000470 <__GI_raise>
 10003c4:	e1a00004 	mov	r0, r4
 10003c8:	eb00007d 	bl	10005c4 <__pthread_mutex_lock>
 10003cc:	e59f3094 	ldr	r3, [pc, #148]	; 1000468 <__GI_abort+0x108>
 10003d0:	e08f3003 	add	r3, pc, r3
 10003d4:	e5932000 	ldr	r2, [r3]
 10003d8:	e3520001 	cmp	r2, #1
 10003dc:	1a00000e 	bne	100041c <__GI_abort+0xbc>
 10003e0:	e28d400c 	add	r4, sp, #12
 10003e4:	e3a02002 	mov	r2, #2
 10003e8:	e3a01000 	mov	r1, #0
 10003ec:	e5832000 	str	r2, [r3]
 10003f0:	e1a00004 	mov	r0, r4
 10003f4:	e3a02014 	mov	r2, #20
 10003f8:	eb000bcc 	bl	1003330 <__GI_memset>
 10003fc:	e3a02000 	mov	r2, #0
 1000400:	e1a01004 	mov	r1, r4
 1000404:	e3a00006 	mov	r0, #6
 1000408:	e3e03000 	mvn	r3, #0
 100040c:	e58d3018 	str	r3, [sp, #24]
 1000410:	e58d301c 	str	r3, [sp, #28]
 1000414:	eb0001c4 	bl	1000b2c <__libc_sigaction>
 1000418:	eaffffe3 	b	10003ac <__GI_abort+0x4c>
 100041c:	e3520002 	cmp	r2, #2
 1000420:	1a000002 	bne	1000430 <__GI_abort+0xd0>
 1000424:	e3a02003 	mov	r2, #3
 1000428:	e5832000 	str	r2, [r3]
 100042c:	ebffffcb 	bl	1000360 <__GI_abort>
 1000430:	e59f3034 	ldr	r3, [pc, #52]	; 100046c <__GI_abort+0x10c>
 1000434:	e08f3003 	add	r3, pc, r3
 1000438:	e5932000 	ldr	r2, [r3]
 100043c:	e3520003 	cmp	r2, #3
 1000440:	1a000003 	bne	1000454 <__GI_abort+0xf4>
 1000444:	e3a0007f 	mov	r0, #127	; 0x7f
 1000448:	e3a02004 	mov	r2, #4
 100044c:	e5832000 	str	r2, [r3]
 1000450:	eb000243 	bl	1000d64 <__GI__exit>
 1000454:	ebffffc1 	bl	1000360 <__GI_abort>
 1000458:	eafffffd 	b	1000454 <__GI_abort+0xf4>
 100045c:	0001dd68 	.word	0x0001dd68
 1000460:	0001df18 	.word	0x0001df18
 1000464:	0001dd20 	.word	0x0001dd20
 1000468:	0001dedc 	.word	0x0001dedc
 100046c:	0001de78 	.word	0x0001de78

01000470 <__GI_raise>:
 1000470:	e92d4083 	push	{r0, r1, r7, lr}
 1000474:	ee1def70 	mrc	15, 0, lr, cr13, cr0, {3}
 1000478:	e59f10f0 	ldr	r1, [pc, #240]	; 1000570 <__GI_raise+0x100>
 100047c:	e1a02000 	mov	r2, r0
 1000480:	e59f30ec 	ldr	r3, [pc, #236]	; 1000574 <__GI_raise+0x104>
 1000484:	e08f1001 	add	r1, pc, r1
 1000488:	e7913003 	ldr	r3, [r1, r3]
 100048c:	e51e1428 	ldr	r1, [lr, #-1064]	; 0xfffffbd8
 1000490:	e5933000 	ldr	r3, [r3]
 1000494:	e58d3004 	str	r3, [sp, #4]
 1000498:	e3a03000 	mov	r3, #0
 100049c:	e3510000 	cmp	r1, #0
 10004a0:	1a000029 	bne	100054c <__GI_raise+0xdc>
 10004a4:	e3a070e0 	mov	r7, #224	; 0xe0
 10004a8:	ef000000 	svc	0x00000000
 10004ac:	e1a01000 	mov	r1, r0
 10004b0:	e50e0428 	str	r0, [lr, #-1064]	; 0xfffffbd8
 10004b4:	e3a07f43 	mov	r7, #268	; 0x10c
 10004b8:	ef000000 	svc	0x00000000
 10004bc:	e3700a01 	cmn	r0, #4096	; 0x1000
 10004c0:	e1a0c000 	mov	ip, r0
 10004c4:	9a000004 	bls	10004dc <__GI_raise+0x6c>
 10004c8:	e59f30a8 	ldr	r3, [pc, #168]	; 1000578 <__GI_raise+0x108>
 10004cc:	e260c000 	rsb	ip, r0, #0
 10004d0:	e79f3003 	ldr	r3, [pc, r3]
 10004d4:	e78ec003 	str	ip, [lr, r3]
 10004d8:	e3e0c000 	mvn	ip, #0
 10004dc:	e37c0001 	cmn	ip, #1
 10004e0:	e1a0000c 	mov	r0, ip
 10004e4:	1a00000f 	bne	1000528 <__GI_raise+0xb8>
 10004e8:	e59f308c 	ldr	r3, [pc, #140]	; 100057c <__GI_raise+0x10c>
 10004ec:	e79f3003 	ldr	r3, [pc, r3]
 10004f0:	e79e3003 	ldr	r3, [lr, r3]
 10004f4:	e3530026 	cmp	r3, #38	; 0x26
 10004f8:	1a00000a 	bne	1000528 <__GI_raise+0xb8>
 10004fc:	e1a00001 	mov	r0, r1
 1000500:	e3a070ee 	mov	r7, #238	; 0xee
 1000504:	e1a01002 	mov	r1, r2
 1000508:	ef000000 	svc	0x00000000
 100050c:	e3700a01 	cmn	r0, #4096	; 0x1000
 1000510:	9a000004 	bls	1000528 <__GI_raise+0xb8>
 1000514:	e59f2064 	ldr	r2, [pc, #100]	; 1000580 <__GI_raise+0x110>
 1000518:	e2603000 	rsb	r3, r0, #0
 100051c:	e1a0000c 	mov	r0, ip
 1000520:	e79f2002 	ldr	r2, [pc, r2]
 1000524:	e78e3002 	str	r3, [lr, r2]
 1000528:	e59f2054 	ldr	r2, [pc, #84]	; 1000584 <__GI_raise+0x114>
 100052c:	e59f3040 	ldr	r3, [pc, #64]	; 1000574 <__GI_raise+0x104>
 1000530:	e08f2002 	add	r2, pc, r2
 1000534:	e7923003 	ldr	r3, [r2, r3]
 1000538:	e5932000 	ldr	r2, [r3]
 100053c:	e59d3004 	ldr	r3, [sp, #4]
 1000540:	e0332002 	eors	r2, r3, r2
 1000544:	0a000007 	beq	1000568 <__GI_raise+0xf8>
 1000548:	ebfffeac 	bl	1000000 <__stack_chk_fail>
 100054c:	e51e0424 	ldr	r0, [lr, #-1060]	; 0xfffffbdc
 1000550:	e3500000 	cmp	r0, #0
 1000554:	caffffd6 	bgt	10004b4 <__GI_raise+0x44>
 1000558:	e3d03102 	bics	r3, r0, #-2147483648	; 0x80000000
 100055c:	12600000 	rsbne	r0, r0, #0
 1000560:	01a00001 	moveq	r0, r1
 1000564:	eaffffd2 	b	10004b4 <__GI_raise+0x44>
 1000568:	e28dd008 	add	sp, sp, #8
 100056c:	e8bd8080 	pop	{r7, pc}
 1000570:	0001db74 	.word	0x0001db74
 1000574:	00000024 	.word	0x00000024
 1000578:	0001db94 	.word	0x0001db94
 100057c:	0001db78 	.word	0x0001db78
 1000580:	0001db44 	.word	0x0001db44
 1000584:	0001dac8 	.word	0x0001dac8
 1000588:	e92d4070 	push	{r4, r5, r6, lr}
 100058c:	e1a05001 	mov	r5, r1
 1000590:	e3a01001 	mov	r1, #1
 1000594:	e1a04000 	mov	r4, r0
 1000598:	eb0001ac 	bl	1000c50 <__GI___libc_fcntl>
 100059c:	e3700001 	cmn	r0, #1
 10005a0:	18bd8070 	popne	{r4, r5, r6, pc}
 10005a4:	e59f0014 	ldr	r0, [pc, #20]	; 10005c0 <__GI_raise+0x150>
 10005a8:	e1a01005 	mov	r1, r5
 10005ac:	e08f0000 	add	r0, pc, r0
 10005b0:	eb00130a 	bl	10051e0 <__GI___libc_open>
 10005b4:	e1540000 	cmp	r4, r0
 10005b8:	08bd8070 	popeq	{r4, r5, r6, pc}
 10005bc:	ebffff67 	bl	1000360 <__GI_abort>
 10005c0:	0000c03c 	.word	0x0000c03c

010005c4 <__pthread_mutex_lock>:
 10005c4:	e3a00000 	mov	r0, #0
 10005c8:	e12fff1e 	bx	lr

010005cc <__pthread_mutex_init>:
 10005cc:	e3a00000 	mov	r0, #0
 10005d0:	e12fff1e 	bx	lr

010005d4 <_pthread_cleanup_push_defer>:
 10005d4:	e8800006 	stm	r0, {r1, r2}
 10005d8:	e12fff1e 	bx	lr

010005dc <_pthread_cleanup_pop_restore>:
 10005dc:	e3510000 	cmp	r1, #0
 10005e0:	012fff1e 	bxeq	lr
 10005e4:	e5903000 	ldr	r3, [r0]
 10005e8:	e5900004 	ldr	r0, [r0, #4]
 10005ec:	e12fff13 	bx	r3

010005f0 <__GI___uClibc_init>:
 10005f0:	e92d4070 	push	{r4, r5, r6, lr}
 10005f4:	e24dd018 	sub	sp, sp, #24
 10005f8:	e59f40c0 	ldr	r4, [pc, #192]	; 10006c0 <__GI___uClibc_init+0xd0>
 10005fc:	e59f30c0 	ldr	r3, [pc, #192]	; 10006c4 <__GI___uClibc_init+0xd4>
 1000600:	e08f4004 	add	r4, pc, r4
 1000604:	e7943003 	ldr	r3, [r4, r3]
 1000608:	e5935000 	ldr	r5, [r3]
 100060c:	e3550000 	cmp	r5, #0
 1000610:	1a00001b 	bne	1000684 <__GI___uClibc_init+0x94>
 1000614:	e3a02a01 	mov	r2, #4096	; 0x1000
 1000618:	e5832000 	str	r2, [r3]
 100061c:	eb001452 	bl	100576c <__pthread_initialize_minimal>
 1000620:	e59f00a0 	ldr	r0, [pc, #160]	; 10006c8 <__GI___uClibc_init+0xd8>
 1000624:	e1a02005 	mov	r2, r5
 1000628:	e1a01005 	mov	r1, r5
 100062c:	e08f0000 	add	r0, pc, r0
 1000630:	eb0012ea 	bl	10051e0 <__GI___libc_open>
 1000634:	e2505000 	subs	r5, r0, #0
 1000638:	ba000013 	blt	100068c <__GI___uClibc_init+0x9c>
 100063c:	e28d100c 	add	r1, sp, #12
 1000640:	e3a02004 	mov	r2, #4
 1000644:	eb00132d 	bl	1005300 <__GI___libc_read>
 1000648:	e1a06000 	mov	r6, r0
 100064c:	e1a00005 	mov	r0, r5
 1000650:	eb0012be 	bl	1005150 <__GI___libc_close>
 1000654:	e3560004 	cmp	r6, #4
 1000658:	1a00000b 	bne	100068c <__GI___uClibc_init+0x9c>
 100065c:	e59f2068 	ldr	r2, [pc, #104]	; 10006cc <__GI___uClibc_init+0xdc>
 1000660:	e59d300c 	ldr	r3, [sp, #12]
 1000664:	e7942002 	ldr	r2, [r4, r2]
 1000668:	e5823000 	str	r3, [r2]
 100066c:	e59f305c 	ldr	r3, [pc, #92]	; 10006d0 <__GI___uClibc_init+0xe0>
 1000670:	e7943003 	ldr	r3, [r4, r3]
 1000674:	e58d3004 	str	r3, [sp, #4]
 1000678:	e3530000 	cmp	r3, #0
 100067c:	0a000000 	beq	1000684 <__GI___uClibc_init+0x94>
 1000680:	eb001a44 	bl	1006f98 <_stdio_init>
 1000684:	e28dd018 	add	sp, sp, #24
 1000688:	e8bd8070 	pop	{r4, r5, r6, pc}
 100068c:	e59f3040 	ldr	r3, [pc, #64]	; 10006d4 <__GI___uClibc_init+0xe4>
 1000690:	e28d0010 	add	r0, sp, #16
 1000694:	e3a01000 	mov	r1, #0
 1000698:	e58d300c 	str	r3, [sp, #12]
 100069c:	eb0001d3 	bl	1000df0 <__GI_gettimeofday>
 10006a0:	e3700001 	cmn	r0, #1
 10006a4:	0affffec 	beq	100065c <__GI___uClibc_init+0x6c>
 10006a8:	e1cd21d0 	ldrd	r2, [sp, #16]
 10006ac:	e0222003 	eor	r2, r2, r3
 10006b0:	e59d300c 	ldr	r3, [sp, #12]
 10006b4:	e0233002 	eor	r3, r3, r2
 10006b8:	e58d300c 	str	r3, [sp, #12]
 10006bc:	eaffffe6 	b	100065c <__GI___uClibc_init+0x6c>
 10006c0:	0001d9f8 	.word	0x0001d9f8
 10006c4:	000000a4 	.word	0x000000a4
 10006c8:	0000bfc6 	.word	0x0000bfc6
 10006cc:	00000024 	.word	0x00000024
 10006d0:	000000b0 	.word	0x000000b0
 10006d4:	ff0a0d00 	.word	0xff0a0d00

010006d8 <__GI___uClibc_fini>:
 10006d8:	e92d4070 	push	{r4, r5, r6, lr}
 10006dc:	e59f3060 	ldr	r3, [pc, #96]	; 1000744 <__GI___uClibc_fini+0x6c>
 10006e0:	e59f4060 	ldr	r4, [pc, #96]	; 1000748 <__GI___uClibc_fini+0x70>
 10006e4:	e08f3003 	add	r3, pc, r3
 10006e8:	e59f505c 	ldr	r5, [pc, #92]	; 100074c <__GI___uClibc_fini+0x74>
 10006ec:	e08f4004 	add	r4, pc, r4
 10006f0:	e0444003 	sub	r4, r4, r3
 10006f4:	e08f5005 	add	r5, pc, r5
 10006f8:	e1a04144 	asr	r4, r4, #2
 10006fc:	e2544001 	subs	r4, r4, #1
 1000700:	2a00000c 	bcs	1000738 <__GI___uClibc_fini+0x60>
 1000704:	e59f3044 	ldr	r3, [pc, #68]	; 1000750 <__GI___uClibc_fini+0x78>
 1000708:	e08f3003 	add	r3, pc, r3
 100070c:	e5933000 	ldr	r3, [r3]
 1000710:	e3530000 	cmp	r3, #0
 1000714:	0a000000 	beq	100071c <__GI___uClibc_fini+0x44>
 1000718:	e12fff33 	blx	r3
 100071c:	e59f3030 	ldr	r3, [pc, #48]	; 1000754 <__GI___uClibc_fini+0x7c>
 1000720:	e08f3003 	add	r3, pc, r3
 1000724:	e5933004 	ldr	r3, [r3, #4]
 1000728:	e3530000 	cmp	r3, #0
 100072c:	08bd8070 	popeq	{r4, r5, r6, pc}
 1000730:	e8bd4070 	pop	{r4, r5, r6, lr}
 1000734:	e12fff13 	bx	r3
 1000738:	e7953104 	ldr	r3, [r5, r4, lsl #2]
 100073c:	e12fff33 	blx	r3
 1000740:	eaffffed 	b	10006fc <__GI___uClibc_fini+0x24>
 1000744:	0001d904 	.word	0x0001d904
 1000748:	0001d900 	.word	0x0001d900
 100074c:	0001d8f4 	.word	0x0001d8f4
 1000750:	0001dba8 	.word	0x0001dba8
 1000754:	0001db90 	.word	0x0001db90

01000758 <__uClibc_main>:
 1000758:	e92d4080 	push	{r7, lr}
 100075c:	e24ddf6a 	sub	sp, sp, #424	; 0x1a8
 1000760:	e1a06003 	mov	r6, r3
 1000764:	e59f337c 	ldr	r3, [pc, #892]	; 1000ae8 <__uClibc_main+0x390>
 1000768:	e58d2004 	str	r2, [sp, #4]
 100076c:	e08f3003 	add	r3, pc, r3
 1000770:	e58d3000 	str	r3, [sp]
 1000774:	e59d2000 	ldr	r2, [sp]
 1000778:	e59f336c 	ldr	r3, [pc, #876]	; 1000aec <__uClibc_main+0x394>
 100077c:	e58d000c 	str	r0, [sp, #12]
 1000780:	e58d1008 	str	r1, [sp, #8]
 1000784:	e7923003 	ldr	r3, [r2, r3]
 1000788:	e59d21b8 	ldr	r2, [sp, #440]	; 0x1b8
 100078c:	e59d0000 	ldr	r0, [sp]
 1000790:	e5832000 	str	r2, [r3]
 1000794:	e59f3354 	ldr	r3, [pc, #852]	; 1000af0 <__uClibc_main+0x398>
 1000798:	e59d21b4 	ldr	r2, [sp, #436]	; 0x1b4
 100079c:	e08f3003 	add	r3, pc, r3
 10007a0:	e5832004 	str	r2, [r3, #4]
 10007a4:	e2812001 	add	r2, r1, #1
 10007a8:	e59d1004 	ldr	r1, [sp, #4]
 10007ac:	e1a03102 	lsl	r3, r2, #2
 10007b0:	e0812102 	add	r2, r1, r2, lsl #2
 10007b4:	e59f1338 	ldr	r1, [pc, #824]	; 1000af4 <__uClibc_main+0x39c>
 10007b8:	e7901001 	ldr	r1, [r0, r1]
 10007bc:	e59d0004 	ldr	r0, [sp, #4]
 10007c0:	e5812000 	str	r2, [r1]
 10007c4:	e5900000 	ldr	r0, [r0]
 10007c8:	e1520000 	cmp	r2, r0
 10007cc:	e28d0018 	add	r0, sp, #24
 10007d0:	02433004 	subeq	r3, r3, #4
 10007d4:	059d2004 	ldreq	r2, [sp, #4]
 10007d8:	00823003 	addeq	r3, r2, r3
 10007dc:	e3a02078 	mov	r2, #120	; 0x78
 10007e0:	05813000 	streq	r3, [r1]
 10007e4:	e3a01000 	mov	r1, #0
 10007e8:	eb000ad0 	bl	1003330 <__GI_memset>
 10007ec:	e59f3300 	ldr	r3, [pc, #768]	; 1000af4 <__uClibc_main+0x39c>
 10007f0:	e59d2000 	ldr	r2, [sp]
 10007f4:	e7923003 	ldr	r3, [r2, r3]
 10007f8:	e5935000 	ldr	r5, [r3]
 10007fc:	e4953004 	ldr	r3, [r5], #4
 1000800:	e3530000 	cmp	r3, #0
 1000804:	1afffffc 	bne	10007fc <__uClibc_main+0xa4>
 1000808:	e28d7018 	add	r7, sp, #24
 100080c:	e3a08008 	mov	r8, #8
 1000810:	e5954000 	ldr	r4, [r5]
 1000814:	e3540000 	cmp	r4, #0
 1000818:	1a000053 	bne	100096c <__uClibc_main+0x214>
 100081c:	e28d0018 	add	r0, sp, #24
 1000820:	eb0013ee 	bl	10057e0 <_dl_aux_init>
 1000824:	ebffff71 	bl	10005f0 <__GI___uClibc_init>
 1000828:	e59f22c8 	ldr	r2, [pc, #712]	; 1000af8 <__uClibc_main+0x3a0>
 100082c:	e59d1000 	ldr	r1, [sp]
 1000830:	e59d304c 	ldr	r3, [sp, #76]	; 0x4c
 1000834:	e7912002 	ldr	r2, [r1, r2]
 1000838:	e3530000 	cmp	r3, #0
 100083c:	03a03a01 	moveq	r3, #4096	; 0x1000
 1000840:	e5823000 	str	r3, [r2]
 1000844:	e59d3074 	ldr	r3, [sp, #116]	; 0x74
 1000848:	e3730001 	cmn	r3, #1
 100084c:	0a00004f 	beq	1000990 <__uClibc_main+0x238>
 1000850:	e59d3074 	ldr	r3, [sp, #116]	; 0x74
 1000854:	e3730001 	cmn	r3, #1
 1000858:	1a000061 	bne	10009e4 <__uClibc_main+0x28c>
 100085c:	e59d3004 	ldr	r3, [sp, #4]
 1000860:	e5935000 	ldr	r5, [r3]
 1000864:	e59f3290 	ldr	r3, [pc, #656]	; 1000afc <__uClibc_main+0x3a4>
 1000868:	e3550000 	cmp	r5, #0
 100086c:	e08f3003 	add	r3, pc, r3
 1000870:	e5835000 	str	r5, [r3]
 1000874:	1a000062 	bne	1000a04 <__uClibc_main+0x2ac>
 1000878:	e59f5280 	ldr	r5, [pc, #640]	; 1000b00 <__uClibc_main+0x3a8>
 100087c:	e1a08004 	mov	r8, r4
 1000880:	e59f727c 	ldr	r7, [pc, #636]	; 1000b04 <__uClibc_main+0x3ac>
 1000884:	e08f5005 	add	r5, pc, r5
 1000888:	e59f3278 	ldr	r3, [pc, #632]	; 1000b08 <__uClibc_main+0x3b0>
 100088c:	e08f7007 	add	r7, pc, r7
 1000890:	e59d21b0 	ldr	r2, [sp, #432]	; 0x1b0
 1000894:	e0477005 	sub	r7, r7, r5
 1000898:	e08f3003 	add	r3, pc, r3
 100089c:	e1a07147 	asr	r7, r7, #2
 10008a0:	e5832000 	str	r2, [r3]
 10008a4:	e1580007 	cmp	r8, r7
 10008a8:	1a000065 	bne	1000a44 <__uClibc_main+0x2ec>
 10008ac:	e3560000 	cmp	r6, #0
 10008b0:	1a000067 	bne	1000a54 <__uClibc_main+0x2fc>
 10008b4:	e59f5250 	ldr	r5, [pc, #592]	; 1000b0c <__uClibc_main+0x3b4>
 10008b8:	e59f6250 	ldr	r6, [pc, #592]	; 1000b10 <__uClibc_main+0x3b8>
 10008bc:	e08f5005 	add	r5, pc, r5
 10008c0:	e08f6006 	add	r6, pc, r6
 10008c4:	e0466005 	sub	r6, r6, r5
 10008c8:	e1a06146 	asr	r6, r6, #2
 10008cc:	e1540006 	cmp	r4, r6
 10008d0:	1a000061 	bne	1000a5c <__uClibc_main+0x304>
 10008d4:	e59f3238 	ldr	r3, [pc, #568]	; 1000b14 <__uClibc_main+0x3bc>
 10008d8:	e59d2000 	ldr	r2, [sp]
 10008dc:	e7923003 	ldr	r3, [r2, r3]
 10008e0:	e58d3010 	str	r3, [sp, #16]
 10008e4:	e3530000 	cmp	r3, #0
 10008e8:	0a000002 	beq	10008f8 <__uClibc_main+0x1a0>
 10008ec:	e320f000 	nop	{0}
 10008f0:	e3a03000 	mov	r3, #0
 10008f4:	e5803000 	str	r3, [r0]
 10008f8:	e59f3218 	ldr	r3, [pc, #536]	; 1000b18 <__uClibc_main+0x3c0>
 10008fc:	e59d2000 	ldr	r2, [sp]
 1000900:	e7923003 	ldr	r3, [r2, r3]
 1000904:	e58d3014 	str	r3, [sp, #20]
 1000908:	e3530000 	cmp	r3, #0
 100090c:	0a000002 	beq	100091c <__uClibc_main+0x1c4>
 1000910:	e320f000 	nop	{0}
 1000914:	e3a03000 	mov	r3, #0
 1000918:	e5803000 	str	r3, [r0]
 100091c:	e28d0090 	add	r0, sp, #144	; 0x90
 1000920:	eb0000a2 	bl	1000bb0 <_setjmp>
 1000924:	e3500000 	cmp	r0, #0
 1000928:	1a00004f 	bne	1000a6c <__uClibc_main+0x314>
 100092c:	ee1d3f70 	mrc	15, 0, r3, cr13, cr0, {3}
 1000930:	e59d1004 	ldr	r1, [sp, #4]
 1000934:	e5132410 	ldr	r2, [r3, #-1040]	; 0xfffffbf0
 1000938:	e59d0008 	ldr	r0, [sp, #8]
 100093c:	e58d2198 	str	r2, [sp, #408]	; 0x198
 1000940:	e5132414 	ldr	r2, [r3, #-1044]	; 0xfffffbec
 1000944:	e58d219c 	str	r2, [sp, #412]	; 0x19c
 1000948:	e28d2090 	add	r2, sp, #144	; 0x90
 100094c:	e5032410 	str	r2, [r3, #-1040]	; 0xfffffbf0
 1000950:	e59d2000 	ldr	r2, [sp]
 1000954:	e59f3198 	ldr	r3, [pc, #408]	; 1000af4 <__uClibc_main+0x39c>
 1000958:	e7923003 	ldr	r3, [r2, r3]
 100095c:	e5932000 	ldr	r2, [r3]
 1000960:	e59d300c 	ldr	r3, [sp, #12]
 1000964:	e12fff33 	blx	r3
 1000968:	eb000fd6 	bl	10048c8 <__GI_exit>
 100096c:	e354000e 	cmp	r4, #14
 1000970:	9a000001 	bls	100097c <__uClibc_main+0x224>
 1000974:	e2855008 	add	r5, r5, #8
 1000978:	eaffffa4 	b	1000810 <__uClibc_main+0xb8>
 100097c:	e0870184 	add	r0, r7, r4, lsl #3
 1000980:	e1a02008 	mov	r2, r8
 1000984:	e1a01005 	mov	r1, r5
 1000988:	eb000a60 	bl	1003310 <__GI_memcpy>
 100098c:	eafffff8 	b	1000974 <__uClibc_main+0x21c>
 1000990:	eb000123 	bl	1000e24 <__GI_getuid>
 1000994:	e1a05000 	mov	r5, r0
 1000998:	eb00010c 	bl	1000dd0 <__GI_geteuid>
 100099c:	e1550000 	cmp	r5, r0
 10009a0:	0a000009 	beq	10009cc <__uClibc_main+0x274>
 10009a4:	e3a01902 	mov	r1, #32768	; 0x8000
 10009a8:	e3a00000 	mov	r0, #0
 10009ac:	ebfffef5 	bl	1000588 <__GI_raise+0x118>
 10009b0:	e3081002 	movw	r1, #32770	; 0x8002
 10009b4:	e3a00001 	mov	r0, #1
 10009b8:	ebfffef2 	bl	1000588 <__GI_raise+0x118>
 10009bc:	e3081002 	movw	r1, #32770	; 0x8002
 10009c0:	e3a00002 	mov	r0, #2
 10009c4:	ebfffeef 	bl	1000588 <__GI_raise+0x118>
 10009c8:	eaffffa3 	b	100085c <__uClibc_main+0x104>
 10009cc:	eb000103 	bl	1000de0 <__GI_getgid>
 10009d0:	e1a05000 	mov	r5, r0
 10009d4:	eb0000f9 	bl	1000dc0 <__GI_getegid>
 10009d8:	e1550000 	cmp	r5, r0
 10009dc:	1afffff0 	bne	10009a4 <__uClibc_main+0x24c>
 10009e0:	eaffff9a 	b	1000850 <__uClibc_main+0xf8>
 10009e4:	e59d207c 	ldr	r2, [sp, #124]	; 0x7c
 10009e8:	e1530002 	cmp	r3, r2
 10009ec:	1affffec 	bne	10009a4 <__uClibc_main+0x24c>
 10009f0:	e59d2084 	ldr	r2, [sp, #132]	; 0x84
 10009f4:	e59d308c 	ldr	r3, [sp, #140]	; 0x8c
 10009f8:	e1520003 	cmp	r2, r3
 10009fc:	1affffe8 	bne	10009a4 <__uClibc_main+0x24c>
 1000a00:	eaffff95 	b	100085c <__uClibc_main+0x104>
 1000a04:	e59d2000 	ldr	r2, [sp]
 1000a08:	e3a0102f 	mov	r1, #47	; 0x2f
 1000a0c:	e59f3108 	ldr	r3, [pc, #264]	; 1000b1c <__uClibc_main+0x3c4>
 1000a10:	e7923003 	ldr	r3, [r2, r3]
 1000a14:	e5835000 	str	r5, [r3]
 1000a18:	e59d3004 	ldr	r3, [sp, #4]
 1000a1c:	e5930000 	ldr	r0, [r3]
 1000a20:	eb000b80 	bl	1003828 <__GI_strrchr>
 1000a24:	e59f30f4 	ldr	r3, [pc, #244]	; 1000b20 <__uClibc_main+0x3c8>
 1000a28:	e59d2000 	ldr	r2, [sp]
 1000a2c:	e7923003 	ldr	r3, [r2, r3]
 1000a30:	e3500000 	cmp	r0, #0
 1000a34:	05835000 	streq	r5, [r3]
 1000a38:	12800001 	addne	r0, r0, #1
 1000a3c:	15830000 	strne	r0, [r3]
 1000a40:	eaffff8c 	b	1000878 <__uClibc_main+0x120>
 1000a44:	e4953004 	ldr	r3, [r5], #4
 1000a48:	e2888001 	add	r8, r8, #1
 1000a4c:	e12fff33 	blx	r3
 1000a50:	eaffff93 	b	10008a4 <__uClibc_main+0x14c>
 1000a54:	e12fff36 	blx	r6
 1000a58:	eaffff95 	b	10008b4 <__uClibc_main+0x15c>
 1000a5c:	e4953004 	ldr	r3, [r5], #4
 1000a60:	e2844001 	add	r4, r4, #1
 1000a64:	e12fff33 	blx	r3
 1000a68:	eaffff97 	b	10008cc <__uClibc_main+0x174>
 1000a6c:	e320f000 	nop	{0}
 1000a70:	e59f30ac 	ldr	r3, [pc, #172]	; 1000b24 <__uClibc_main+0x3cc>
 1000a74:	e59d2000 	ldr	r2, [sp]
 1000a78:	e7922003 	ldr	r2, [r2, r3]
 1000a7c:	e5923000 	ldr	r3, [r2]
 1000a80:	f57ff05b 	dmb	ish
 1000a84:	e2430001 	sub	r0, r3, #1
 1000a88:	e1921f9f 	ldrex	r1, [r2]
 1000a8c:	e1510003 	cmp	r1, r3
 1000a90:	1a000002 	bne	1000aa0 <__uClibc_main+0x348>
 1000a94:	e182cf90 	strex	ip, r0, [r2]
 1000a98:	e35c0000 	cmp	ip, #0
 1000a9c:	1afffff9 	bne	1000a88 <__uClibc_main+0x330>
 1000aa0:	e1530001 	cmp	r3, r1
 1000aa4:	f57ff05b 	dmb	ish
 1000aa8:	1afffff3 	bne	1000a7c <__uClibc_main+0x324>
 1000aac:	e3530001 	cmp	r3, #1
 1000ab0:	1a000001 	bne	1000abc <__uClibc_main+0x364>
 1000ab4:	e3a00000 	mov	r0, #0
 1000ab8:	eaffffaa 	b	1000968 <__uClibc_main+0x210>
 1000abc:	e3a00000 	mov	r0, #0
 1000ac0:	e3a07001 	mov	r7, #1
 1000ac4:	ef000000 	svc	0x00000000
 1000ac8:	e3700a01 	cmn	r0, #4096	; 0x1000
 1000acc:	9afffff8 	bls	1000ab4 <__uClibc_main+0x35c>
 1000ad0:	e59f3050 	ldr	r3, [pc, #80]	; 1000b28 <__uClibc_main+0x3d0>
 1000ad4:	ee1d2f70 	mrc	15, 0, r2, cr13, cr0, {3}
 1000ad8:	e2600000 	rsb	r0, r0, #0
 1000adc:	e79f3003 	ldr	r3, [pc, r3]
 1000ae0:	e7820003 	str	r0, [r2, r3]
 1000ae4:	eafffff2 	b	1000ab4 <__uClibc_main+0x35c>
 1000ae8:	0001d88c 	.word	0x0001d88c
 1000aec:	00000020 	.word	0x00000020
 1000af0:	0001db14 	.word	0x0001db14
 1000af4:	0000003c 	.word	0x0000003c
 1000af8:	000000a4 	.word	0x000000a4
 1000afc:	0001d87c 	.word	0x0001d87c
 1000b00:	0001d760 	.word	0x0001d760
 1000b04:	0001d758 	.word	0x0001d758
 1000b08:	0001da18 	.word	0x0001da18
 1000b0c:	0001d728 	.word	0x0001d728
 1000b10:	0001d728 	.word	0x0001d728
 1000b14:	000000c4 	.word	0x000000c4
 1000b18:	0000008c 	.word	0x0000008c
 1000b1c:	000000bc 	.word	0x000000bc
 1000b20:	00000074 	.word	0x00000074
 1000b24:	00000084 	.word	0x00000084
 1000b28:	0001d588 	.word	0x0001d588

01000b2c <__libc_sigaction>:
 1000b2c:	e92d40f0 	push	{r4, r5, r6, r7, lr}
 1000b30:	e2514000 	subs	r4, r1, #0
 1000b34:	e59f7068 	ldr	r7, [pc, #104]	; 1000ba4 <__libc_sigaction+0x78>
 1000b38:	e24dd01c 	sub	sp, sp, #28
 1000b3c:	e1a05000 	mov	r5, r0
 1000b40:	e1a06002 	mov	r6, r2
 1000b44:	e08f7007 	add	r7, pc, r7
 1000b48:	0a00000e 	beq	1000b88 <__libc_sigaction+0x5c>
 1000b4c:	e5943004 	ldr	r3, [r4, #4]
 1000b50:	e3130301 	tst	r3, #67108864	; 0x4000000
 1000b54:	1a00000b 	bne	1000b88 <__libc_sigaction+0x5c>
 1000b58:	e28d4004 	add	r4, sp, #4
 1000b5c:	e3a02014 	mov	r2, #20
 1000b60:	e1a00004 	mov	r0, r4
 1000b64:	eb0009e9 	bl	1003310 <__GI_memcpy>
 1000b68:	e59d3008 	ldr	r3, [sp, #8]
 1000b6c:	e59f2034 	ldr	r2, [pc, #52]	; 1000ba8 <__libc_sigaction+0x7c>
 1000b70:	e3130004 	tst	r3, #4
 1000b74:	159f2030 	ldrne	r2, [pc, #48]	; 1000bac <__libc_sigaction+0x80>
 1000b78:	e7972002 	ldr	r2, [r7, r2]
 1000b7c:	e3833301 	orr	r3, r3, #67108864	; 0x4000000
 1000b80:	e58d3008 	str	r3, [sp, #8]
 1000b84:	e58d200c 	str	r2, [sp, #12]
 1000b88:	e3a03008 	mov	r3, #8
 1000b8c:	e1a02006 	mov	r2, r6
 1000b90:	e1a01004 	mov	r1, r4
 1000b94:	e1a00005 	mov	r0, r5
 1000b98:	eb000064 	bl	1000d30 <__syscall_rt_sigaction>
 1000b9c:	e28dd01c 	add	sp, sp, #28
 1000ba0:	e8bd80f0 	pop	{r4, r5, r6, r7, pc}
 1000ba4:	0001d4b4 	.word	0x0001d4b4
 1000ba8:	00000088 	.word	0x00000088
 1000bac:	00000094 	.word	0x00000094

01000bb0 <_setjmp>:
 1000bb0:	e3a01000 	mov	r1, #0
 1000bb4:	ea001339 	b	10058a0 <__sigsetjmp>
 1000bb8:	e320f000 	nop	{0}

01000bbc <__default_sa_restorer>:
 1000bbc:	e3a07077 	mov	r7, #119	; 0x77
 1000bc0:	ef000000 	svc	0x00000000
 1000bc4:	e320f000 	nop	{0}

01000bc8 <__default_rt_sa_restorer>:
 1000bc8:	e3a070ad 	mov	r7, #173	; 0xad
 1000bcc:	ef000000 	svc	0x00000000

01000bd0 <__GI___fcntl_nocancel>:
 1000bd0:	e92d000e 	push	{r1, r2, r3}
 1000bd4:	e92d4087 	push	{r0, r1, r2, r7, lr}
 1000bd8:	e28d3018 	add	r3, sp, #24
 1000bdc:	e59d1014 	ldr	r1, [sp, #20]
 1000be0:	e58d3004 	str	r3, [sp, #4]
 1000be4:	e241300c 	sub	r3, r1, #12
 1000be8:	e59d2018 	ldr	r2, [sp, #24]
 1000bec:	e3530002 	cmp	r3, #2
 1000bf0:	8a00000d 	bhi	1000c2c <__GI___fcntl_nocancel+0x5c>
 1000bf4:	e3a070dd 	mov	r7, #221	; 0xdd
 1000bf8:	ef000000 	svc	0x00000000
 1000bfc:	e3700a01 	cmn	r0, #4096	; 0x1000
 1000c00:	9a000005 	bls	1000c1c <__GI___fcntl_nocancel+0x4c>
 1000c04:	e59f303c 	ldr	r3, [pc, #60]	; 1000c48 <__GI___fcntl_nocancel+0x78>
 1000c08:	e79f3003 	ldr	r3, [pc, r3]
 1000c0c:	ee1d2f70 	mrc	15, 0, r2, cr13, cr0, {3}
 1000c10:	e2600000 	rsb	r0, r0, #0
 1000c14:	e7820003 	str	r0, [r2, r3]
 1000c18:	e3e00000 	mvn	r0, #0
 1000c1c:	e28dd00c 	add	sp, sp, #12
 1000c20:	e8bd4080 	pop	{r7, lr}
 1000c24:	e28dd00c 	add	sp, sp, #12
 1000c28:	e12fff1e 	bx	lr
 1000c2c:	e3a07037 	mov	r7, #55	; 0x37
 1000c30:	ef000000 	svc	0x00000000
 1000c34:	e3700a01 	cmn	r0, #4096	; 0x1000
 1000c38:	9afffff7 	bls	1000c1c <__GI___fcntl_nocancel+0x4c>
 1000c3c:	e59f3008 	ldr	r3, [pc, #8]	; 1000c4c <__GI___fcntl_nocancel+0x7c>
 1000c40:	e79f3003 	ldr	r3, [pc, r3]
 1000c44:	eafffff0 	b	1000c0c <__GI___fcntl_nocancel+0x3c>
 1000c48:	0001d45c 	.word	0x0001d45c
 1000c4c:	0001d424 	.word	0x0001d424

01000c50 <__GI___libc_fcntl>:
 1000c50:	e92d000e 	push	{r1, r2, r3}
 1000c54:	e92d40f3 	push	{r0, r1, r4, r5, r6, r7, lr}
 1000c58:	e28d3020 	add	r3, sp, #32
 1000c5c:	e58d3004 	str	r3, [sp, #4]
 1000c60:	e1a05000 	mov	r5, r0
 1000c64:	e59f30b8 	ldr	r3, [pc, #184]	; 1000d24 <__GI___libc_fcntl+0xd4>
 1000c68:	e59d401c 	ldr	r4, [sp, #28]
 1000c6c:	e08f3003 	add	r3, pc, r3
 1000c70:	e59d6020 	ldr	r6, [sp, #32]
 1000c74:	e5933000 	ldr	r3, [r3]
 1000c78:	e3530000 	cmp	r3, #0
 1000c7c:	0a000002 	beq	1000c8c <__GI___libc_fcntl+0x3c>
 1000c80:	e3540007 	cmp	r4, #7
 1000c84:	1354000e 	cmpne	r4, #14
 1000c88:	0a000012 	beq	1000cd8 <__GI___libc_fcntl+0x88>
 1000c8c:	e1a00005 	mov	r0, r5
 1000c90:	e1a01004 	mov	r1, r4
 1000c94:	e1a02006 	mov	r2, r6
 1000c98:	e3a070dd 	mov	r7, #221	; 0xdd
 1000c9c:	ef000000 	svc	0x00000000
 1000ca0:	e3700a01 	cmn	r0, #4096	; 0x1000
 1000ca4:	9a000005 	bls	1000cc0 <__GI___libc_fcntl+0x70>
 1000ca8:	e59f3078 	ldr	r3, [pc, #120]	; 1000d28 <__GI___libc_fcntl+0xd8>
 1000cac:	ee1d2f70 	mrc	15, 0, r2, cr13, cr0, {3}
 1000cb0:	e2600000 	rsb	r0, r0, #0
 1000cb4:	e79f3003 	ldr	r3, [pc, r3]
 1000cb8:	e7820003 	str	r0, [r2, r3]
 1000cbc:	e3e00000 	mvn	r0, #0
 1000cc0:	e1a04000 	mov	r4, r0
 1000cc4:	e1a00004 	mov	r0, r4
 1000cc8:	e28dd008 	add	sp, sp, #8
 1000ccc:	e8bd40f0 	pop	{r4, r5, r6, r7, lr}
 1000cd0:	e28dd00c 	add	sp, sp, #12
 1000cd4:	e12fff1e 	bx	lr
 1000cd8:	eb0011a1 	bl	1005364 <__libc_enable_asynccancel>
 1000cdc:	e3a070dd 	mov	r7, #221	; 0xdd
 1000ce0:	e1a01004 	mov	r1, r4
 1000ce4:	e1a02006 	mov	r2, r6
 1000ce8:	e1a0c000 	mov	ip, r0
 1000cec:	e1a00005 	mov	r0, r5
 1000cf0:	ef000000 	svc	0x00000000
 1000cf4:	e3700a01 	cmn	r0, #4096	; 0x1000
 1000cf8:	9a000005 	bls	1000d14 <__GI___libc_fcntl+0xc4>
 1000cfc:	e59f2028 	ldr	r2, [pc, #40]	; 1000d2c <__GI___libc_fcntl+0xdc>
 1000d00:	e2603000 	rsb	r3, r0, #0
 1000d04:	ee1d1f70 	mrc	15, 0, r1, cr13, cr0, {3}
 1000d08:	e3e00000 	mvn	r0, #0
 1000d0c:	e79f2002 	ldr	r2, [pc, r2]
 1000d10:	e7813002 	str	r3, [r1, r2]
 1000d14:	e1a04000 	mov	r4, r0
 1000d18:	e1a0000c 	mov	r0, ip
 1000d1c:	eb0011bc 	bl	1005414 <__libc_disable_asynccancel>
 1000d20:	eaffffe7 	b	1000cc4 <__GI___libc_fcntl+0x74>
 1000d24:	00020048 	.word	0x00020048
 1000d28:	0001d3b0 	.word	0x0001d3b0
 1000d2c:	0001d358 	.word	0x0001d358

01000d30 <__syscall_rt_sigaction>:
 1000d30:	e92d4080 	push	{r7, lr}
 1000d34:	e3a070ae 	mov	r7, #174	; 0xae
 1000d38:	ef000000 	svc	0x00000000
 1000d3c:	e3700a01 	cmn	r0, #4096	; 0x1000
 1000d40:	98bd8080 	popls	{r7, pc}
 1000d44:	e59f3014 	ldr	r3, [pc, #20]	; 1000d60 <__syscall_rt_sigaction+0x30>
 1000d48:	ee1d2f70 	mrc	15, 0, r2, cr13, cr0, {3}
 1000d4c:	e2600000 	rsb	r0, r0, #0
 1000d50:	e79f3003 	ldr	r3, [pc, r3]
 1000d54:	e7820003 	str	r0, [r2, r3]
 1000d58:	e3e00000 	mvn	r0, #0
 1000d5c:	e8bd8080 	pop	{r7, pc}
 1000d60:	0001d314 	.word	0x0001d314

01000d64 <__GI__exit>:
 1000d64:	e1a02000 	mov	r2, r0
 1000d68:	ee1dcf70 	mrc	15, 0, ip, cr13, cr0, {3}
 1000d6c:	e92d4080 	push	{r7, lr}
 1000d70:	e1a00002 	mov	r0, r2
 1000d74:	e3a070f8 	mov	r7, #248	; 0xf8
 1000d78:	ef000000 	svc	0x00000000
 1000d7c:	e3700a01 	cmn	r0, #4096	; 0x1000
 1000d80:	e3a07001 	mov	r7, #1
 1000d84:	82603000 	rsbhi	r3, r0, #0
 1000d88:	e1a00002 	mov	r0, r2
 1000d8c:	859f1024 	ldrhi	r1, [pc, #36]	; 1000db8 <__GI__exit+0x54>
 1000d90:	879f1001 	ldrhi	r1, [pc, r1]
 1000d94:	878c3001 	strhi	r3, [ip, r1]
 1000d98:	ef000000 	svc	0x00000000
 1000d9c:	e3700a01 	cmn	r0, #4096	; 0x1000
 1000da0:	9afffff2 	bls	1000d70 <__GI__exit+0xc>
 1000da4:	e59f1010 	ldr	r1, [pc, #16]	; 1000dbc <__GI__exit+0x58>
 1000da8:	e2603000 	rsb	r3, r0, #0
 1000dac:	e79f1001 	ldr	r1, [pc, r1]
 1000db0:	e78c3001 	str	r3, [ip, r1]
 1000db4:	eaffffed 	b	1000d70 <__GI__exit+0xc>
 1000db8:	0001d2d4 	.word	0x0001d2d4
 1000dbc:	0001d2b8 	.word	0x0001d2b8

01000dc0 <__GI_getegid>:
 1000dc0:	e92d4080 	push	{r7, lr}
 1000dc4:	e3a070ca 	mov	r7, #202	; 0xca
 1000dc8:	ef000000 	svc	0x00000000
 1000dcc:	e8bd8080 	pop	{r7, pc}

01000dd0 <__GI_geteuid>:
 1000dd0:	e92d4080 	push	{r7, lr}
 1000dd4:	e3a070c9 	mov	r7, #201	; 0xc9
 1000dd8:	ef000000 	svc	0x00000000
 1000ddc:	e8bd8080 	pop	{r7, pc}

01000de0 <__GI_getgid>:
 1000de0:	e92d4080 	push	{r7, lr}
 1000de4:	e3a070c8 	mov	r7, #200	; 0xc8
 1000de8:	ef000000 	svc	0x00000000
 1000dec:	e8bd8080 	pop	{r7, pc}

01000df0 <__GI_gettimeofday>:
 1000df0:	e92d4080 	push	{r7, lr}
 1000df4:	e3a0704e 	mov	r7, #78	; 0x4e
 1000df8:	ef000000 	svc	0x00000000
 1000dfc:	e3700a01 	cmn	r0, #4096	; 0x1000
 1000e00:	98bd8080 	popls	{r7, pc}
 1000e04:	e59f3014 	ldr	r3, [pc, #20]	; 1000e20 <__GI_gettimeofday+0x30>
 1000e08:	ee1d2f70 	mrc	15, 0, r2, cr13, cr0, {3}
 1000e0c:	e2600000 	rsb	r0, r0, #0
 1000e10:	e79f3003 	ldr	r3, [pc, r3]
 1000e14:	e7820003 	str	r0, [r2, r3]
 1000e18:	e3e00000 	mvn	r0, #0
 1000e1c:	e8bd8080 	pop	{r7, pc}
 1000e20:	0001d254 	.word	0x0001d254

01000e24 <__GI_getuid>:
 1000e24:	e92d4080 	push	{r7, lr}
 1000e28:	e3a070c7 	mov	r7, #199	; 0xc7
 1000e2c:	ef000000 	svc	0x00000000
 1000e30:	e8bd8080 	pop	{r7, pc}

01000e34 <__GI_sigprocmask>:
 1000e34:	e92d4083 	push	{r0, r1, r7, lr}
 1000e38:	e3510000 	cmp	r1, #0
 1000e3c:	e1a0e000 	mov	lr, r0
 1000e40:	0a00000d 	beq	1000e7c <__GI_sigprocmask+0x48>
 1000e44:	e591c000 	ldr	ip, [r1]
 1000e48:	e35c0000 	cmp	ip, #0
 1000e4c:	ba000002 	blt	1000e5c <__GI_sigprocmask+0x28>
 1000e50:	e5913004 	ldr	r3, [r1, #4]
 1000e54:	e3130001 	tst	r3, #1
 1000e58:	0a000007 	beq	1000e7c <__GI_sigprocmask+0x48>
 1000e5c:	e8910003 	ldm	r1, {r0, r1}
 1000e60:	e1a0300d 	mov	r3, sp
 1000e64:	e3ccc102 	bic	ip, ip, #-2147483648	; 0x80000000
 1000e68:	e8830003 	stm	r3, {r0, r1}
 1000e6c:	e3c11001 	bic	r1, r1, #1
 1000e70:	e58d1004 	str	r1, [sp, #4]
 1000e74:	e1a01003 	mov	r1, r3
 1000e78:	e58dc000 	str	ip, [sp]
 1000e7c:	e1a0000e 	mov	r0, lr
 1000e80:	e3a03008 	mov	r3, #8
 1000e84:	e3a070af 	mov	r7, #175	; 0xaf
 1000e88:	ef000000 	svc	0x00000000
 1000e8c:	e3700a01 	cmn	r0, #4096	; 0x1000
 1000e90:	9a000005 	bls	1000eac <__GI_sigprocmask+0x78>
 1000e94:	e59f3018 	ldr	r3, [pc, #24]	; 1000eb4 <__GI_sigprocmask+0x80>
 1000e98:	ee1d2f70 	mrc	15, 0, r2, cr13, cr0, {3}
 1000e9c:	e2600000 	rsb	r0, r0, #0
 1000ea0:	e79f3003 	ldr	r3, [pc, r3]
 1000ea4:	e7820003 	str	r0, [r2, r3]
 1000ea8:	e3e00000 	mvn	r0, #0
 1000eac:	e28dd008 	add	sp, sp, #8
 1000eb0:	e8bd8080 	pop	{r7, pc}
 1000eb4:	0001d1c4 	.word	0x0001d1c4
 1000eb8:	e3500000 	cmp	r0, #0
 1000ebc:	e92d41f0 	push	{r4, r5, r6, r7, r8, lr}
 1000ec0:	e1a05001 	mov	r5, r1
 1000ec4:	159f3104 	ldrne	r3, [pc, #260]	; 1000fd0 <__GI_sigprocmask+0x19c>
 1000ec8:	108f3003 	addne	r3, pc, r3
 1000ecc:	15830000 	strne	r0, [r3]
 1000ed0:	e59f30fc 	ldr	r3, [pc, #252]	; 1000fd4 <__GI_sigprocmask+0x1a0>
 1000ed4:	e08f3003 	add	r3, pc, r3
 1000ed8:	e5835000 	str	r5, [r3]
 1000edc:	e3d23ffe 	bics	r3, r2, #1016	; 0x3f8
 1000ee0:	1a000003 	bne	1000ef4 <__GI_sigprocmask+0xc0>
 1000ee4:	e59f30ec 	ldr	r3, [pc, #236]	; 1000fd8 <__GI_sigprocmask+0x1a4>
 1000ee8:	e1a021a2 	lsr	r2, r2, #3
 1000eec:	e08f3003 	add	r3, pc, r3
 1000ef0:	e5832000 	str	r2, [r3]
 1000ef4:	e59f30e0 	ldr	r3, [pc, #224]	; 1000fdc <__GI_sigprocmask+0x1a8>
 1000ef8:	e08f3003 	add	r3, pc, r3
 1000efc:	e5934004 	ldr	r4, [r3, #4]
 1000f00:	e3740001 	cmn	r4, #1
 1000f04:	13a08002 	movne	r8, #2
 1000f08:	1a000017 	bne	1000f6c <__GI_sigprocmask+0x138>
 1000f0c:	e3a06002 	mov	r6, #2
 1000f10:	e3150008 	tst	r5, #8
 1000f14:	08bd81f0 	popeq	{r4, r5, r6, r7, r8, pc}
 1000f18:	e3a02000 	mov	r2, #0
 1000f1c:	e1a01006 	mov	r1, r6
 1000f20:	e3a00001 	mov	r0, #1
 1000f24:	eb000b03 	bl	1003b38 <__GI_socket>
 1000f28:	e59f30b0 	ldr	r3, [pc, #176]	; 1000fe0 <__GI_sigprocmask+0x1ac>
 1000f2c:	e08f3003 	add	r3, pc, r3
 1000f30:	e3700001 	cmn	r0, #1
 1000f34:	e1a04000 	mov	r4, r0
 1000f38:	e5830004 	str	r0, [r3, #4]
 1000f3c:	08bd81f0 	popeq	{r4, r5, r6, r7, r8, pc}
 1000f40:	e3a02001 	mov	r2, #1
 1000f44:	e3a01002 	mov	r1, #2
 1000f48:	ebffff40 	bl	1000c50 <__GI___libc_fcntl>
 1000f4c:	e3a01003 	mov	r1, #3
 1000f50:	e1a00004 	mov	r0, r4
 1000f54:	e1a08006 	mov	r8, r6
 1000f58:	ebffff3c 	bl	1000c50 <__GI___libc_fcntl>
 1000f5c:	e3a01004 	mov	r1, #4
 1000f60:	e3802b02 	orr	r2, r0, #2048	; 0x800
 1000f64:	e1a00004 	mov	r0, r4
 1000f68:	ebffff38 	bl	1000c50 <__GI___libc_fcntl>
 1000f6c:	e59f7070 	ldr	r7, [pc, #112]	; 1000fe4 <__GI_sigprocmask+0x1b0>
 1000f70:	e08f7007 	add	r7, pc, r7
 1000f74:	e5973004 	ldr	r3, [r7, #4]
 1000f78:	e3530000 	cmp	r3, #0
 1000f7c:	18bd81f0 	popne	{r4, r5, r6, r7, r8, pc}
 1000f80:	e59f1060 	ldr	r1, [pc, #96]	; 1000fe8 <__GI_sigprocmask+0x1b4>
 1000f84:	e3a02010 	mov	r2, #16
 1000f88:	e1a00004 	mov	r0, r4
 1000f8c:	e08f1001 	add	r1, pc, r1
 1000f90:	eb000a8e 	bl	10039d0 <__libc_connect>
 1000f94:	e3700001 	cmn	r0, #1
 1000f98:	e1a06000 	mov	r6, r0
 1000f9c:	0a000002 	beq	1000fac <__GI_sigprocmask+0x178>
 1000fa0:	e3a03001 	mov	r3, #1
 1000fa4:	e5873004 	str	r3, [r7, #4]
 1000fa8:	e8bd81f0 	pop	{r4, r5, r6, r7, r8, pc}
 1000fac:	e1a00004 	mov	r0, r4
 1000fb0:	eb001066 	bl	1005150 <__GI___libc_close>
 1000fb4:	e59f3030 	ldr	r3, [pc, #48]	; 1000fec <__GI_sigprocmask+0x1b8>
 1000fb8:	e3580002 	cmp	r8, #2
 1000fbc:	e08f3003 	add	r3, pc, r3
 1000fc0:	e5836004 	str	r6, [r3, #4]
 1000fc4:	e3a06001 	mov	r6, #1
 1000fc8:	18bd81f0 	popne	{r4, r5, r6, r7, r8, pc}
 1000fcc:	eaffffcf 	b	1000f10 <__GI_sigprocmask+0xdc>
 1000fd0:	0001d238 	.word	0x0001d238
 1000fd4:	0001d3f0 	.word	0x0001d3f0
 1000fd8:	0001d208 	.word	0x0001d208
 1000fdc:	0001d1fc 	.word	0x0001d1fc
 1000fe0:	0001d1c8 	.word	0x0001d1c8
 1000fe4:	0001d354 	.word	0x0001d354
 1000fe8:	0000b6f8 	.word	0x0000b6f8
 1000fec:	0001d138 	.word	0x0001d138

01000ff0 <__GI_openlog>:
 1000ff0:	e59f306c 	ldr	r3, [pc, #108]	; 1001064 <__GI_openlog+0x74>
 1000ff4:	e92d41f0 	push	{r4, r5, r6, r7, r8, lr}
 1000ff8:	e1a08002 	mov	r8, r2
 1000ffc:	e59f2064 	ldr	r2, [pc, #100]	; 1001068 <__GI_openlog+0x78>
 1001000:	e08f3003 	add	r3, pc, r3
 1001004:	e59f5060 	ldr	r5, [pc, #96]	; 100106c <__GI_openlog+0x7c>
 1001008:	e24dd018 	sub	sp, sp, #24
 100100c:	e28d4008 	add	r4, sp, #8
 1001010:	e1a06000 	mov	r6, r0
 1001014:	e7933002 	ldr	r3, [r3, r2]
 1001018:	e08f5005 	add	r5, pc, r5
 100101c:	e2855008 	add	r5, r5, #8
 1001020:	e1a07001 	mov	r7, r1
 1001024:	e1a00004 	mov	r0, r4
 1001028:	e1a01003 	mov	r1, r3
 100102c:	e1a02005 	mov	r2, r5
 1001030:	e58d3004 	str	r3, [sp, #4]
 1001034:	ebfffd66 	bl	10005d4 <_pthread_cleanup_push_defer>
 1001038:	e1a00005 	mov	r0, r5
 100103c:	ebfffd60 	bl	10005c4 <__pthread_mutex_lock>
 1001040:	e1a02008 	mov	r2, r8
 1001044:	e1a01007 	mov	r1, r7
 1001048:	e1a00006 	mov	r0, r6
 100104c:	ebffff99 	bl	1000eb8 <__GI_sigprocmask+0x84>
 1001050:	e3a01001 	mov	r1, #1
 1001054:	e1a00004 	mov	r0, r4
 1001058:	ebfffd5f 	bl	10005dc <_pthread_cleanup_pop_restore>
 100105c:	e28dd018 	add	sp, sp, #24
 1001060:	e8bd81f0 	pop	{r4, r5, r6, r7, r8, pc}
 1001064:	0001cff8 	.word	0x0001cff8
 1001068:	0000004c 	.word	0x0000004c
 100106c:	0001d2ac 	.word	0x0001d2ac

01001070 <__GI_vsyslog>:
 1001070:	e92d4ff0 	push	{r4, r5, r6, r7, r8, r9, sl, fp, lr}
 1001074:	e24dde42 	sub	sp, sp, #1056	; 0x420
 1001078:	e24dd004 	sub	sp, sp, #4
 100107c:	e59f33a4 	ldr	r3, [pc, #932]	; 1001428 <__GI_vsyslog+0x3b8>
 1001080:	e1a0a002 	mov	sl, r2
 1001084:	e59f23a0 	ldr	r2, [pc, #928]	; 100142c <__GI_vsyslog+0x3bc>
 1001088:	e58d1000 	str	r1, [sp]
 100108c:	e59f139c 	ldr	r1, [pc, #924]	; 1001430 <__GI_vsyslog+0x3c0>
 1001090:	e08f2002 	add	r2, pc, r2
 1001094:	e08f1001 	add	r1, pc, r1
 1001098:	e7913003 	ldr	r3, [r1, r3]
 100109c:	e5933000 	ldr	r3, [r3]
 10010a0:	e58d341c 	str	r3, [sp, #1052]	; 0x41c
 10010a4:	e3a03000 	mov	r3, #0
 10010a8:	e3c03fff 	bic	r3, r0, #1020	; 0x3fc
 10010ac:	e3c33003 	bic	r3, r3, #3
 10010b0:	e3530000 	cmp	r3, #0
 10010b4:	1a0000cf 	bne	10013f8 <__GI_vsyslog+0x388>
 10010b8:	e59f3374 	ldr	r3, [pc, #884]	; 1001434 <__GI_vsyslog+0x3c4>
 10010bc:	ee1d9f70 	mrc	15, 0, r9, cr13, cr0, {3}
 10010c0:	e59f6370 	ldr	r6, [pc, #880]	; 1001438 <__GI_vsyslog+0x3c8>
 10010c4:	e28d5010 	add	r5, sp, #16
 10010c8:	e245b004 	sub	fp, r5, #4
 10010cc:	e1a04000 	mov	r4, r0
 10010d0:	e79f3003 	ldr	r3, [pc, r3]
 10010d4:	e08f6006 	add	r6, pc, r6
 10010d8:	e2868008 	add	r8, r6, #8
 10010dc:	e1a0000b 	mov	r0, fp
 10010e0:	e7997003 	ldr	r7, [r9, r3]
 10010e4:	e59f3350 	ldr	r3, [pc, #848]	; 100143c <__GI_vsyslog+0x3cc>
 10010e8:	e7923003 	ldr	r3, [r2, r3]
 10010ec:	e1a02008 	mov	r2, r8
 10010f0:	e1a01003 	mov	r1, r3
 10010f4:	e58d3004 	str	r3, [sp, #4]
 10010f8:	ebfffd35 	bl	10005d4 <_pthread_cleanup_push_defer>
 10010fc:	e1a00008 	mov	r0, r8
 1001100:	ebfffd2f 	bl	10005c4 <__pthread_mutex_lock>
 1001104:	e59f2334 	ldr	r2, [pc, #820]	; 1001440 <__GI_vsyslog+0x3d0>
 1001108:	e2043007 	and	r3, r4, #7
 100110c:	e3a00001 	mov	r0, #1
 1001110:	e08f2002 	add	r2, pc, r2
 1001114:	e5921008 	ldr	r1, [r2, #8]
 1001118:	e0113310 	ands	r3, r1, r0, lsl r3
 100111c:	0a0000b2 	beq	10013ec <__GI_vsyslog+0x37c>
 1001120:	e5923004 	ldr	r3, [r2, #4]
 1001124:	e3530000 	cmp	r3, #0
 1001128:	ba000002 	blt	1001138 <__GI_vsyslog+0xc8>
 100112c:	e5963004 	ldr	r3, [r6, #4]
 1001130:	e3530000 	cmp	r3, #0
 1001134:	1a000007 	bne	1001158 <__GI_vsyslog+0xe8>
 1001138:	e59f3304 	ldr	r3, [pc, #772]	; 1001444 <__GI_vsyslog+0x3d4>
 100113c:	e3a00000 	mov	r0, #0
 1001140:	e79f2003 	ldr	r2, [pc, r3]
 1001144:	e59f32fc 	ldr	r3, [pc, #764]	; 1001448 <__GI_vsyslog+0x3d8>
 1001148:	e1a02182 	lsl	r2, r2, #3
 100114c:	e79f1003 	ldr	r1, [pc, r3]
 1001150:	e3811008 	orr	r1, r1, #8
 1001154:	ebffff57 	bl	1000eb8 <__GI_sigprocmask+0x84>
 1001158:	e3140ffe 	tst	r4, #1016	; 0x3f8
 100115c:	1a000003 	bne	1001170 <__GI_vsyslog+0x100>
 1001160:	e59f32e4 	ldr	r3, [pc, #740]	; 100144c <__GI_vsyslog+0x3dc>
 1001164:	e08f3003 	add	r3, pc, r3
 1001168:	e5933000 	ldr	r3, [r3]
 100116c:	e1844183 	orr	r4, r4, r3, lsl #3
 1001170:	e2455008 	sub	r5, r5, #8
 1001174:	e28d801c 	add	r8, sp, #28
 1001178:	e1a00005 	mov	r0, r5
 100117c:	eb00122b 	bl	1005a30 <__GI_time>
 1001180:	e1a00005 	mov	r0, r5
 1001184:	eb000121 	bl	1001610 <__GI_ctime>
 1001188:	e59f12c0 	ldr	r1, [pc, #704]	; 1001450 <__GI_vsyslog+0x3e0>
 100118c:	e1a02004 	mov	r2, r4
 1001190:	e08f1001 	add	r1, pc, r1
 1001194:	e2803004 	add	r3, r0, #4
 1001198:	e1a00008 	mov	r0, r8
 100119c:	eb0003dc 	bl	1002114 <__GI_sprintf>
 10011a0:	e59f32ac 	ldr	r3, [pc, #684]	; 1001454 <__GI_vsyslog+0x3e4>
 10011a4:	e79f4003 	ldr	r4, [pc, r3]
 10011a8:	e0886000 	add	r6, r8, r0
 10011ac:	e1a00004 	mov	r0, r4
 10011b0:	eb00088e 	bl	10033f0 <__GI_strlen>
 10011b4:	e3500d0f 	cmp	r0, #960	; 0x3c0
 10011b8:	2a000082 	bcs	10013c8 <__GI_vsyslog+0x358>
 10011bc:	e59f1294 	ldr	r1, [pc, #660]	; 1001458 <__GI_vsyslog+0x3e8>
 10011c0:	e1a02004 	mov	r2, r4
 10011c4:	e1a00006 	mov	r0, r6
 10011c8:	e08f1001 	add	r1, pc, r1
 10011cc:	eb0003d0 	bl	1002114 <__GI_sprintf>
 10011d0:	e59f3284 	ldr	r3, [pc, #644]	; 100145c <__GI_vsyslog+0x3ec>
 10011d4:	e0864000 	add	r4, r6, r0
 10011d8:	e08f3003 	add	r3, pc, r3
 10011dc:	e5933000 	ldr	r3, [r3]
 10011e0:	e3130001 	tst	r3, #1
 10011e4:	0a000006 	beq	1001204 <__GI_vsyslog+0x194>
 10011e8:	eb000faa 	bl	1005098 <__getpid>
 10011ec:	e59f126c 	ldr	r1, [pc, #620]	; 1001460 <__GI_vsyslog+0x3f0>
 10011f0:	e08f1001 	add	r1, pc, r1
 10011f4:	e1a02000 	mov	r2, r0
 10011f8:	e1a00004 	mov	r0, r4
 10011fc:	eb0003c4 	bl	1002114 <__GI_sprintf>
 1001200:	e0844000 	add	r4, r4, r0
 1001204:	e1a05004 	mov	r5, r4
 1001208:	e3a0303a 	mov	r3, #58	; 0x3a
 100120c:	e4c53002 	strb	r3, [r5], #2
 1001210:	e3a03020 	mov	r3, #32
 1001214:	e5c43001 	strb	r3, [r4, #1]
 1001218:	e1a00005 	mov	r0, r5
 100121c:	e59f3240 	ldr	r3, [pc, #576]	; 1001464 <__GI_vsyslog+0x3f4>
 1001220:	e59d2000 	ldr	r2, [sp]
 1001224:	e79f3003 	ldr	r3, [pc, r3]
 1001228:	e7897003 	str	r7, [r9, r3]
 100122c:	e2887fff 	add	r7, r8, #1020	; 0x3fc
 1001230:	e2877003 	add	r7, r7, #3
 1001234:	e1a0300a 	mov	r3, sl
 1001238:	e0471005 	sub	r1, r7, r5
 100123c:	e58d1000 	str	r1, [sp]
 1001240:	eb0003be 	bl	1002140 <__GI_vsnprintf>
 1001244:	e59d1000 	ldr	r1, [sp]
 1001248:	e085a000 	add	sl, r5, r0
 100124c:	e155000a 	cmp	r5, sl
 1001250:	915a0007 	cmpls	sl, r7
 1001254:	3a000014 	bcc	10012ac <__GI_vsyslog+0x23c>
 1001258:	e241200c 	sub	r2, r1, #12
 100125c:	e284000e 	add	r0, r4, #14
 1001260:	e1a01005 	mov	r1, r5
 1001264:	eb00082d 	bl	1003320 <__GI_memmove>
 1001268:	e59f11f8 	ldr	r1, [pc, #504]	; 1001468 <__GI_vsyslog+0x3f8>
 100126c:	e3a0200c 	mov	r2, #12
 1001270:	e1a00005 	mov	r0, r5
 1001274:	e08f1001 	add	r1, pc, r1
 1001278:	eb000824 	bl	1003310 <__GI_memcpy>
 100127c:	e155000a 	cmp	r5, sl
 1001280:	9288afff 	addls	sl, r8, #1020	; 0x3fc
 1001284:	928aa002 	addls	sl, sl, #2
 1001288:	9a000007 	bls	10012ac <__GI_vsyslog+0x23c>
 100128c:	e1a0300a 	mov	r3, sl
 1001290:	e1530007 	cmp	r3, r7
 1001294:	e1a0a003 	mov	sl, r3
 1001298:	2a000003 	bcs	10012ac <__GI_vsyslog+0x23c>
 100129c:	e5da2000 	ldrb	r2, [sl]
 10012a0:	e2833001 	add	r3, r3, #1
 10012a4:	e3520000 	cmp	r2, #0
 10012a8:	1afffff8 	bne	1001290 <__GI_vsyslog+0x220>
 10012ac:	e59f31b8 	ldr	r3, [pc, #440]	; 100146c <__GI_vsyslog+0x3fc>
 10012b0:	e08f3003 	add	r3, pc, r3
 10012b4:	e5933000 	ldr	r3, [r3]
 10012b8:	e3130020 	tst	r3, #32
 10012bc:	0a000006 	beq	10012dc <__GI_vsyslog+0x26c>
 10012c0:	e04a2006 	sub	r2, sl, r6
 10012c4:	e3a0300a 	mov	r3, #10
 10012c8:	e2822001 	add	r2, r2, #1
 10012cc:	e1a01006 	mov	r1, r6
 10012d0:	e3a00002 	mov	r0, #2
 10012d4:	e5ca3000 	strb	r3, [sl]
 10012d8:	eb000fe4 	bl	1005270 <__GI___libc_write>
 10012dc:	e59f518c 	ldr	r5, [pc, #396]	; 1001470 <__GI_vsyslog+0x400>
 10012e0:	e3a03000 	mov	r3, #0
 10012e4:	e5ca3000 	strb	r3, [sl]
 10012e8:	e08f5005 	add	r5, pc, r5
 10012ec:	e5953004 	ldr	r3, [r5, #4]
 10012f0:	e3530000 	cmp	r3, #0
 10012f4:	ba000019 	blt	1001360 <__GI_vsyslog+0x2f0>
 10012f8:	e28a6001 	add	r6, sl, #1
 10012fc:	e1a04008 	mov	r4, r8
 1001300:	e5950004 	ldr	r0, [r5, #4]
 1001304:	e0462004 	sub	r2, r6, r4
 1001308:	e3a03901 	mov	r3, #16384	; 0x4000
 100130c:	e1a01004 	mov	r1, r4
 1001310:	eb0009da 	bl	1003a80 <__libc_send>
 1001314:	e3500000 	cmp	r0, #0
 1001318:	aa000030 	bge	10013e0 <__GI_vsyslog+0x370>
 100131c:	e59f3150 	ldr	r3, [pc, #336]	; 1001474 <__GI_vsyslog+0x404>
 1001320:	e79f3003 	ldr	r3, [pc, r3]
 1001324:	e7993003 	ldr	r3, [r9, r3]
 1001328:	e3530004 	cmp	r3, #4
 100132c:	0a00002a 	beq	10013dc <__GI_vsyslog+0x36c>
 1001330:	e5950004 	ldr	r0, [r5, #4]
 1001334:	e3700001 	cmn	r0, #1
 1001338:	0a000000 	beq	1001340 <__GI_vsyslog+0x2d0>
 100133c:	eb000f83 	bl	1005150 <__GI___libc_close>
 1001340:	e59f3130 	ldr	r3, [pc, #304]	; 1001478 <__GI_vsyslog+0x408>
 1001344:	e3e02000 	mvn	r2, #0
 1001348:	e08f3003 	add	r3, pc, r3
 100134c:	e5832004 	str	r2, [r3, #4]
 1001350:	e3a02000 	mov	r2, #0
 1001354:	e59f3120 	ldr	r3, [pc, #288]	; 100147c <__GI_vsyslog+0x40c>
 1001358:	e08f3003 	add	r3, pc, r3
 100135c:	e5832004 	str	r2, [r3, #4]
 1001360:	e59f3118 	ldr	r3, [pc, #280]	; 1001480 <__GI_vsyslog+0x410>
 1001364:	e08f3003 	add	r3, pc, r3
 1001368:	e5933000 	ldr	r3, [r3]
 100136c:	e3130002 	tst	r3, #2
 1001370:	0a00001d 	beq	10013ec <__GI_vsyslog+0x37c>
 1001374:	e59f0108 	ldr	r0, [pc, #264]	; 1001484 <__GI_vsyslog+0x414>
 1001378:	e3001101 	movw	r1, #257	; 0x101
 100137c:	e08f0000 	add	r0, pc, r0
 1001380:	eb000f96 	bl	10051e0 <__GI___libc_open>
 1001384:	e2504000 	subs	r4, r0, #0
 1001388:	ba000017 	blt	10013ec <__GI_vsyslog+0x37c>
 100138c:	e3a0103e 	mov	r1, #62	; 0x3e
 1001390:	e1a00008 	mov	r0, r8
 1001394:	eb00082d 	bl	1003450 <__GI_strchr>
 1001398:	e3a0300d 	mov	r3, #13
 100139c:	e5ca3000 	strb	r3, [sl]
 10013a0:	e3a0300a 	mov	r3, #10
 10013a4:	e5ca3001 	strb	r3, [sl, #1]
 10013a8:	e2801001 	add	r1, r0, #1
 10013ac:	e1a00004 	mov	r0, r4
 10013b0:	e04a2001 	sub	r2, sl, r1
 10013b4:	e2822002 	add	r2, r2, #2
 10013b8:	eb000fac 	bl	1005270 <__GI___libc_write>
 10013bc:	e1a00004 	mov	r0, r4
 10013c0:	eb000f62 	bl	1005150 <__GI___libc_close>
 10013c4:	ea000008 	b	10013ec <__GI_vsyslog+0x37c>
 10013c8:	e59f10b8 	ldr	r1, [pc, #184]	; 1001488 <__GI_vsyslog+0x418>
 10013cc:	e1a00006 	mov	r0, r6
 10013d0:	e08f1001 	add	r1, pc, r1
 10013d4:	eb00034e 	bl	1002114 <__GI_sprintf>
 10013d8:	eaffff7c 	b	10011d0 <__GI_vsyslog+0x160>
 10013dc:	e3a00000 	mov	r0, #0
 10013e0:	e0844000 	add	r4, r4, r0
 10013e4:	e15a0004 	cmp	sl, r4
 10013e8:	2affffc4 	bcs	1001300 <__GI_vsyslog+0x290>
 10013ec:	e3a01001 	mov	r1, #1
 10013f0:	e1a0000b 	mov	r0, fp
 10013f4:	ebfffc78 	bl	10005dc <_pthread_cleanup_pop_restore>
 10013f8:	e59f208c 	ldr	r2, [pc, #140]	; 100148c <__GI_vsyslog+0x41c>
 10013fc:	e59f3024 	ldr	r3, [pc, #36]	; 1001428 <__GI_vsyslog+0x3b8>
 1001400:	e08f2002 	add	r2, pc, r2
 1001404:	e7923003 	ldr	r3, [r2, r3]
 1001408:	e5932000 	ldr	r2, [r3]
 100140c:	e59d341c 	ldr	r3, [sp, #1052]	; 0x41c
 1001410:	e0332002 	eors	r2, r3, r2
 1001414:	0a000000 	beq	100141c <__GI_vsyslog+0x3ac>
 1001418:	ebfffaf8 	bl	1000000 <__stack_chk_fail>
 100141c:	e28dde42 	add	sp, sp, #1056	; 0x420
 1001420:	e28dd004 	add	sp, sp, #4
 1001424:	e8bd8ff0 	pop	{r4, r5, r6, r7, r8, r9, sl, fp, pc}
 1001428:	00000024 	.word	0x00000024
 100142c:	0001cf68 	.word	0x0001cf68
 1001430:	0001cf64 	.word	0x0001cf64
 1001434:	0001cf94 	.word	0x0001cf94
 1001438:	0001d1f0 	.word	0x0001d1f0
 100143c:	0000004c 	.word	0x0000004c
 1001440:	0001cfe4 	.word	0x0001cfe4
 1001444:	0001cfb4 	.word	0x0001cfb4
 1001448:	0001d178 	.word	0x0001d178
 100144c:	0001cf90 	.word	0x0001cf90
 1001450:	0000b4a6 	.word	0x0000b4a6
 1001454:	0001cf5c 	.word	0x0001cf5c
 1001458:	0000b479 	.word	0x0000b479
 100145c:	0001d0ec 	.word	0x0001d0ec
 1001460:	0000b46d 	.word	0x0000b46d
 1001464:	0001ce40 	.word	0x0001ce40
 1001468:	0000b402 	.word	0x0000b402
 100146c:	0001d014 	.word	0x0001d014
 1001470:	0001ce0c 	.word	0x0001ce0c
 1001474:	0001cd44 	.word	0x0001cd44
 1001478:	0001cdac 	.word	0x0001cdac
 100147c:	0001cf6c 	.word	0x0001cf6c
 1001480:	0001cf60 	.word	0x0001cf60
 1001484:	0000b2e6 	.word	0x0000b2e6
 1001488:	0000b274 	.word	0x0000b274
 100148c:	0001cbf8 	.word	0x0001cbf8

01001490 <__GI_syslog>:
 1001490:	e92d000e 	push	{r1, r2, r3}
 1001494:	e92d4003 	push	{r0, r1, lr}
 1001498:	e28d2010 	add	r2, sp, #16
 100149c:	e59d100c 	ldr	r1, [sp, #12]
 10014a0:	e58d2004 	str	r2, [sp, #4]
 10014a4:	ebfffef1 	bl	1001070 <__GI_vsyslog>
 10014a8:	e28dd008 	add	sp, sp, #8
 10014ac:	e49de004 	pop	{lr}		; (ldr lr, [sp], #4)
 10014b0:	e28dd00c 	add	sp, sp, #12
 10014b4:	e12fff1e 	bx	lr

010014b8 <__GI_closelog>:
 10014b8:	e59f30ac 	ldr	r3, [pc, #172]	; 100156c <__GI_closelog+0xb4>
 10014bc:	e59f20ac 	ldr	r2, [pc, #172]	; 1001570 <__GI_closelog+0xb8>
 10014c0:	e92d4030 	push	{r4, r5, lr}
 10014c4:	e08f3003 	add	r3, pc, r3
 10014c8:	e59f40a4 	ldr	r4, [pc, #164]	; 1001574 <__GI_closelog+0xbc>
 10014cc:	e24dd01c 	sub	sp, sp, #28
 10014d0:	e7933002 	ldr	r3, [r3, r2]
 10014d4:	e28d5008 	add	r5, sp, #8
 10014d8:	e08f4004 	add	r4, pc, r4
 10014dc:	e2844008 	add	r4, r4, #8
 10014e0:	e1a00005 	mov	r0, r5
 10014e4:	e1a01003 	mov	r1, r3
 10014e8:	e58d3004 	str	r3, [sp, #4]
 10014ec:	e1a02004 	mov	r2, r4
 10014f0:	ebfffc37 	bl	10005d4 <_pthread_cleanup_push_defer>
 10014f4:	e1a00004 	mov	r0, r4
 10014f8:	ebfffc31 	bl	10005c4 <__pthread_mutex_lock>
 10014fc:	e59f3074 	ldr	r3, [pc, #116]	; 1001578 <__GI_closelog+0xc0>
 1001500:	e08f3003 	add	r3, pc, r3
 1001504:	e5930004 	ldr	r0, [r3, #4]
 1001508:	e3700001 	cmn	r0, #1
 100150c:	0a000000 	beq	1001514 <__GI_closelog+0x5c>
 1001510:	eb000f0e 	bl	1005150 <__GI___libc_close>
 1001514:	e59f3060 	ldr	r3, [pc, #96]	; 100157c <__GI_closelog+0xc4>
 1001518:	e3e02000 	mvn	r2, #0
 100151c:	e3a01000 	mov	r1, #0
 1001520:	e1a00005 	mov	r0, r5
 1001524:	e08f3003 	add	r3, pc, r3
 1001528:	e5832004 	str	r2, [r3, #4]
 100152c:	e59f204c 	ldr	r2, [pc, #76]	; 1001580 <__GI_closelog+0xc8>
 1001530:	e08f2002 	add	r2, pc, r2
 1001534:	e5821000 	str	r1, [r2]
 1001538:	e5821004 	str	r1, [r2, #4]
 100153c:	e59f2040 	ldr	r2, [pc, #64]	; 1001584 <__GI_closelog+0xcc>
 1001540:	e59f1040 	ldr	r1, [pc, #64]	; 1001588 <__GI_closelog+0xd0>
 1001544:	e08f2002 	add	r2, pc, r2
 1001548:	e08f1001 	add	r1, pc, r1
 100154c:	e5821000 	str	r1, [r2]
 1001550:	e3a01001 	mov	r1, #1
 1001554:	e3a020ff 	mov	r2, #255	; 0xff
 1001558:	e5831000 	str	r1, [r3]
 100155c:	e5832008 	str	r2, [r3, #8]
 1001560:	ebfffc1d 	bl	10005dc <_pthread_cleanup_pop_restore>
 1001564:	e28dd01c 	add	sp, sp, #28
 1001568:	e8bd8030 	pop	{r4, r5, pc}
 100156c:	0001cb34 	.word	0x0001cb34
 1001570:	0000004c 	.word	0x0000004c
 1001574:	0001cdec 	.word	0x0001cdec
 1001578:	0001cbf4 	.word	0x0001cbf4
 100157c:	0001cbd0 	.word	0x0001cbd0
 1001580:	0001cd94 	.word	0x0001cd94
 1001584:	0001cbbc 	.word	0x0001cbbc
 1001588:	0000b127 	.word	0x0000b127

0100158c <setlogmask>:
 100158c:	e92d41f0 	push	{r4, r5, r6, r7, r8, lr}
 1001590:	e2505000 	subs	r5, r0, #0
 1001594:	e59f7064 	ldr	r7, [pc, #100]	; 1001600 <setlogmask+0x74>
 1001598:	e24dd018 	sub	sp, sp, #24
 100159c:	e59f3060 	ldr	r3, [pc, #96]	; 1001604 <setlogmask+0x78>
 10015a0:	e08f7007 	add	r7, pc, r7
 10015a4:	e08f3003 	add	r3, pc, r3
 10015a8:	e5978008 	ldr	r8, [r7, #8]
 10015ac:	0a000010 	beq	10015f4 <setlogmask+0x68>
 10015b0:	e59f2050 	ldr	r2, [pc, #80]	; 1001608 <setlogmask+0x7c>
 10015b4:	e28d4008 	add	r4, sp, #8
 10015b8:	e59f604c 	ldr	r6, [pc, #76]	; 100160c <setlogmask+0x80>
 10015bc:	e1a00004 	mov	r0, r4
 10015c0:	e7933002 	ldr	r3, [r3, r2]
 10015c4:	e08f6006 	add	r6, pc, r6
 10015c8:	e2866008 	add	r6, r6, #8
 10015cc:	e1a01003 	mov	r1, r3
 10015d0:	e1a02006 	mov	r2, r6
 10015d4:	e58d3004 	str	r3, [sp, #4]
 10015d8:	ebfffbfd 	bl	10005d4 <_pthread_cleanup_push_defer>
 10015dc:	e1a00006 	mov	r0, r6
 10015e0:	ebfffbf7 	bl	10005c4 <__pthread_mutex_lock>
 10015e4:	e3a01001 	mov	r1, #1
 10015e8:	e1a00004 	mov	r0, r4
 10015ec:	e5875008 	str	r5, [r7, #8]
 10015f0:	ebfffbf9 	bl	10005dc <_pthread_cleanup_pop_restore>
 10015f4:	e1a00008 	mov	r0, r8
 10015f8:	e28dd018 	add	sp, sp, #24
 10015fc:	e8bd81f0 	pop	{r4, r5, r6, r7, r8, pc}
 1001600:	0001cb54 	.word	0x0001cb54
 1001604:	0001ca54 	.word	0x0001ca54
 1001608:	0000004c 	.word	0x0000004c
 100160c:	0001cd00 	.word	0x0001cd00

01001610 <__GI_ctime>:
 1001610:	e92d4030 	push	{r4, r5, lr}
 1001614:	e24dd034 	sub	sp, sp, #52	; 0x34
 1001618:	e28d4004 	add	r4, sp, #4
 100161c:	e3a0202c 	mov	r2, #44	; 0x2c
 1001620:	e1a05000 	mov	r5, r0
 1001624:	e3a01000 	mov	r1, #0
 1001628:	e1a00004 	mov	r0, r4
 100162c:	eb00073f 	bl	1003330 <__GI_memset>
 1001630:	e1a01004 	mov	r1, r4
 1001634:	e1a00005 	mov	r0, r5
 1001638:	eb000002 	bl	1001648 <__GI_localtime_r>
 100163c:	eb0012c7 	bl	1006160 <__GI_asctime>
 1001640:	e28dd034 	add	sp, sp, #52	; 0x34
 1001644:	e8bd8030 	pop	{r4, r5, pc}

01001648 <__GI_localtime_r>:
 1001648:	e59f3084 	ldr	r3, [pc, #132]	; 10016d4 <__GI_localtime_r+0x8c>
 100164c:	e59f2084 	ldr	r2, [pc, #132]	; 10016d8 <__GI_localtime_r+0x90>
 1001650:	e08f3003 	add	r3, pc, r3
 1001654:	e92d40f0 	push	{r4, r5, r6, r7, lr}
 1001658:	e24dd01c 	sub	sp, sp, #28
 100165c:	e7937002 	ldr	r7, [r3, r2]
 1001660:	e28d5008 	add	r5, sp, #8
 1001664:	e59f2070 	ldr	r2, [pc, #112]	; 10016dc <__GI_localtime_r+0x94>
 1001668:	e1a06000 	mov	r6, r0
 100166c:	e1a04001 	mov	r4, r1
 1001670:	e1a00005 	mov	r0, r5
 1001674:	e7933002 	ldr	r3, [r3, r2]
 1001678:	e1a02007 	mov	r2, r7
 100167c:	e1a01003 	mov	r1, r3
 1001680:	e58d3004 	str	r3, [sp, #4]
 1001684:	ebfffbd2 	bl	10005d4 <_pthread_cleanup_push_defer>
 1001688:	e1a00007 	mov	r0, r7
 100168c:	ebfffbcc 	bl	10005c4 <__pthread_mutex_lock>
 1001690:	e5960000 	ldr	r0, [r6]
 1001694:	e59f3044 	ldr	r3, [pc, #68]	; 10016e0 <__GI_localtime_r+0x98>
 1001698:	e1500003 	cmp	r0, r3
 100169c:	c3a00000 	movgt	r0, #0
 10016a0:	d3a00001 	movle	r0, #1
 10016a4:	eb000032 	bl	1001774 <_time_tzset>
 10016a8:	e59f2034 	ldr	r2, [pc, #52]	; 10016e4 <__GI_localtime_r+0x9c>
 10016ac:	e1a01004 	mov	r1, r4
 10016b0:	e1a00006 	mov	r0, r6
 10016b4:	e08f2002 	add	r2, pc, r2
 10016b8:	eb0001bf 	bl	1001dbc <__time_localtime_tzi>
 10016bc:	e1a00005 	mov	r0, r5
 10016c0:	e3a01001 	mov	r1, #1
 10016c4:	ebfffbc4 	bl	10005dc <_pthread_cleanup_pop_restore>
 10016c8:	e1a00004 	mov	r0, r4
 10016cc:	e28dd01c 	add	sp, sp, #28
 10016d0:	e8bd80f0 	pop	{r4, r5, r6, r7, pc}
 10016d4:	0001c9a8 	.word	0x0001c9a8
 10016d8:	00000018 	.word	0x00000018
 10016dc:	0000004c 	.word	0x0000004c
 10016e0:	45984eff 	.word	0x45984eff
 10016e4:	0001f208 	.word	0x0001f208
 10016e8:	e59f2080 	ldr	r2, [pc, #128]	; 1001770 <__GI_localtime_r+0x128>
 10016ec:	e3e03000 	mvn	r3, #0
 10016f0:	e92d4030 	push	{r4, r5, lr}
 10016f4:	e08f2002 	add	r2, pc, r2
 10016f8:	e2822007 	add	r2, r2, #7
 10016fc:	e3a0e000 	mov	lr, #0
 1001700:	e3a0400a 	mov	r4, #10
 1001704:	e5d0c000 	ldrb	ip, [r0]
 1001708:	e24cc030 	sub	ip, ip, #48	; 0x30
 100170c:	e6ef507c 	uxtb	r5, ip
 1001710:	e3550009 	cmp	r5, #9
 1001714:	92800001 	addls	r0, r0, #1
 1001718:	91a0300c 	movls	r3, ip
 100171c:	e5d0c000 	ldrb	ip, [r0]
 1001720:	e24cc030 	sub	ip, ip, #48	; 0x30
 1001724:	e6ef507c 	uxtb	r5, ip
 1001728:	e3550009 	cmp	r5, #9
 100172c:	92800001 	addls	r0, r0, #1
 1001730:	9023c394 	mlals	r3, r4, r3, ip
 1001734:	e4d2c001 	ldrb	ip, [r2], #1
 1001738:	e15c0003 	cmp	ip, r3
 100173c:	9a000009 	bls	1001768 <__GI_localtime_r+0x120>
 1001740:	e02e3c9e 	mla	lr, lr, ip, r3
 1001744:	e5d03000 	ldrb	r3, [r0]
 1001748:	e353003a 	cmp	r3, #58	; 0x3a
 100174c:	02800001 	addeq	r0, r0, #1
 1001750:	03e03000 	mvneq	r3, #0
 1001754:	13a03000 	movne	r3, #0
 1001758:	e35c0001 	cmp	ip, #1
 100175c:	8affffe8 	bhi	1001704 <__GI_localtime_r+0xbc>
 1001760:	e581e000 	str	lr, [r1]
 1001764:	e8bd8030 	pop	{r4, r5, pc}
 1001768:	e3a00000 	mov	r0, #0
 100176c:	e8bd8030 	pop	{r4, r5, pc}
 1001770:	0000afbc 	.word	0x0000afbc

01001774 <_time_tzset>:
 1001774:	e59f25b4 	ldr	r2, [pc, #1460]	; 1001d30 <_time_tzset+0x5bc>
 1001778:	e59f35b4 	ldr	r3, [pc, #1460]	; 1001d34 <_time_tzset+0x5c0>
 100177c:	e92d4ff0 	push	{r4, r5, r6, r7, r8, r9, sl, fp, lr}
 1001780:	e08f2002 	add	r2, pc, r2
 1001784:	e24dd09c 	sub	sp, sp, #156	; 0x9c
 1001788:	e59f75a8 	ldr	r7, [pc, #1448]	; 1001d38 <_time_tzset+0x5c4>
 100178c:	e28d8010 	add	r8, sp, #16
 1001790:	e58d0000 	str	r0, [sp]
 1001794:	e08f7007 	add	r7, pc, r7
 1001798:	e7923003 	ldr	r3, [r2, r3]
 100179c:	e1a00008 	mov	r0, r8
 10017a0:	e5933000 	ldr	r3, [r3]
 10017a4:	e58d3094 	str	r3, [sp, #148]	; 0x94
 10017a8:	e3a03000 	mov	r3, #0
 10017ac:	e3a03000 	mov	r3, #0
 10017b0:	e58d300c 	str	r3, [sp, #12]
 10017b4:	e59f3580 	ldr	r3, [pc, #1408]	; 1001d3c <_time_tzset+0x5c8>
 10017b8:	e7974003 	ldr	r4, [r7, r3]
 10017bc:	e59f357c 	ldr	r3, [pc, #1404]	; 1001d40 <_time_tzset+0x5cc>
 10017c0:	e1a02004 	mov	r2, r4
 10017c4:	e7973003 	ldr	r3, [r7, r3]
 10017c8:	e1a01003 	mov	r1, r3
 10017cc:	e58d3004 	str	r3, [sp, #4]
 10017d0:	ebfffb7f 	bl	10005d4 <_pthread_cleanup_push_defer>
 10017d4:	e1a00004 	mov	r0, r4
 10017d8:	ebfffb79 	bl	10005c4 <__pthread_mutex_lock>
 10017dc:	e59f0560 	ldr	r0, [pc, #1376]	; 1001d44 <_time_tzset+0x5d0>
 10017e0:	e08f0000 	add	r0, pc, r0
 10017e4:	eb000c19 	bl	1004850 <__GI_getenv>
 10017e8:	e2504000 	subs	r4, r0, #0
 10017ec:	1a000016 	bne	100184c <_time_tzset+0xd8>
 10017f0:	e59f0550 	ldr	r0, [pc, #1360]	; 1001d48 <_time_tzset+0x5d4>
 10017f4:	e1a01004 	mov	r1, r4
 10017f8:	e08f0000 	add	r0, pc, r0
 10017fc:	eb000e77 	bl	10051e0 <__GI___libc_open>
 1001800:	e2505000 	subs	r5, r0, #0
 1001804:	ba00006b 	blt	10019b8 <_time_tzset+0x244>
 1001808:	e28d6050 	add	r6, sp, #80	; 0x50
 100180c:	e3a02044 	mov	r2, #68	; 0x44
 1001810:	e1a01006 	mov	r1, r6
 1001814:	eb000eb9 	bl	1005300 <__GI___libc_read>
 1001818:	e3500000 	cmp	r0, #0
 100181c:	ba000006 	blt	100183c <_time_tzset+0xc8>
 1001820:	e0860000 	add	r0, r6, r0
 1001824:	e1500006 	cmp	r0, r6
 1001828:	9a000003 	bls	100183c <_time_tzset+0xc8>
 100182c:	e5503001 	ldrb	r3, [r0, #-1]
 1001830:	e353000a 	cmp	r3, #10
 1001834:	05404001 	strbeq	r4, [r0, #-1]
 1001838:	01a04006 	moveq	r4, r6
 100183c:	e1a00005 	mov	r0, r5
 1001840:	eb000e42 	bl	1005150 <__GI___libc_close>
 1001844:	e3540000 	cmp	r4, #0
 1001848:	0a000060 	beq	10019d0 <_time_tzset+0x25c>
 100184c:	e5d43000 	ldrb	r3, [r4]
 1001850:	e3530000 	cmp	r3, #0
 1001854:	0a00005d 	beq	10019d0 <_time_tzset+0x25c>
 1001858:	e59f54ec 	ldr	r5, [pc, #1260]	; 1001d4c <_time_tzset+0x5d8>
 100185c:	e353003a 	cmp	r3, #58	; 0x3a
 1001860:	02844001 	addeq	r4, r4, #1
 1001864:	e08f5005 	add	r5, pc, r5
 1001868:	e1a00004 	mov	r0, r4
 100186c:	e1a01005 	mov	r1, r5
 1001870:	eb0006d6 	bl	10033d0 <__GI_strcmp>
 1001874:	e3500000 	cmp	r0, #0
 1001878:	0a000074 	beq	1001a50 <_time_tzset+0x2dc>
 100187c:	e59fa4cc 	ldr	sl, [pc, #1228]	; 1001d50 <_time_tzset+0x5dc>
 1001880:	e1a00005 	mov	r0, r5
 1001884:	e3a02044 	mov	r2, #68	; 0x44
 1001888:	e1a01004 	mov	r1, r4
 100188c:	e08fa00a 	add	sl, pc, sl
 1001890:	e3a09002 	mov	r9, #2
 1001894:	eb000770 	bl	100365c <__GI_strncpy>
 1001898:	e3a05000 	mov	r5, #0
 100189c:	e5cd5048 	strb	r5, [sp, #72]	; 0x48
 10018a0:	e5d43000 	ldrb	r3, [r4]
 10018a4:	e28d2098 	add	r2, sp, #152	; 0x98
 10018a8:	e59a0000 	ldr	r0, [sl]
 10018ac:	e3a0e000 	mov	lr, #0
 10018b0:	e353003c 	cmp	r3, #60	; 0x3c
 10018b4:	e3a03018 	mov	r3, #24
 10018b8:	e0232593 	mla	r3, r3, r5, r2
 10018bc:	02844001 	addeq	r4, r4, #1
 10018c0:	03a0c03e 	moveq	ip, #62	; 0x3e
 10018c4:	13a0c000 	movne	ip, #0
 10018c8:	e2433068 	sub	r3, r3, #104	; 0x68
 10018cc:	e1a06004 	mov	r6, r4
 10018d0:	e4d41001 	ldrb	r1, [r4], #1
 10018d4:	e3510000 	cmp	r1, #0
 10018d8:	0a00000d 	beq	1001914 <_time_tzset+0x1a0>
 10018dc:	e3110080 	tst	r1, #128	; 0x80
 10018e0:	1a00000b 	bne	1001914 <_time_tzset+0x1a0>
 10018e4:	e1a02081 	lsl	r2, r1, #1
 10018e8:	e19020b2 	ldrh	r2, [r0, r2]
 10018ec:	e3120004 	tst	r2, #4
 10018f0:	1a00008d 	bne	1001b2c <_time_tzset+0x3b8>
 10018f4:	e35c0000 	cmp	ip, #0
 10018f8:	0a000005 	beq	1001914 <_time_tzset+0x1a0>
 10018fc:	e241b02b 	sub	fp, r1, #43	; 0x2b
 1001900:	e7e025d2 	ubfx	r2, r2, #11, #1
 1001904:	e31b00fd 	tst	fp, #253	; 0xfd
 1001908:	03a02001 	moveq	r2, #1
 100190c:	e3520000 	cmp	r2, #0
 1001910:	1a000085 	bne	1001b2c <_time_tzset+0x3b8>
 1001914:	e35e0002 	cmp	lr, #2
 1001918:	e3a02000 	mov	r2, #0
 100191c:	e5c32000 	strb	r2, [r3]
 1001920:	da00002a 	ble	10019d0 <_time_tzset+0x25c>
 1001924:	e15c0002 	cmp	ip, r2
 1001928:	0a000002 	beq	1001938 <_time_tzset+0x1c4>
 100192c:	e4d63001 	ldrb	r3, [r6], #1
 1001930:	e15c0003 	cmp	ip, r3
 1001934:	1a000025 	bne	10019d0 <_time_tzset+0x25c>
 1001938:	e5d63000 	ldrb	r3, [r6]
 100193c:	e243202b 	sub	r2, r3, #43	; 0x2b
 1001940:	e31200fd 	tst	r2, #253	; 0xfd
 1001944:	0a000089 	beq	1001b70 <_time_tzset+0x3fc>
 1001948:	e3550000 	cmp	r5, #0
 100194c:	0a00007b 	beq	1001b40 <_time_tzset+0x3cc>
 1001950:	e2433030 	sub	r3, r3, #48	; 0x30
 1001954:	e3530009 	cmp	r3, #9
 1001958:	9a000078 	bls	1001b40 <_time_tzset+0x3cc>
 100195c:	e59d300c 	ldr	r3, [sp, #12]
 1001960:	e1a04006 	mov	r4, r6
 1001964:	e2433ee1 	sub	r3, r3, #3600	; 0xe10
 1001968:	e58d300c 	str	r3, [sp, #12]
 100196c:	e28d1098 	add	r1, sp, #152	; 0x98
 1001970:	e3a03018 	mov	r3, #24
 1001974:	e59d200c 	ldr	r2, [sp, #12]
 1001978:	e3590001 	cmp	r9, #1
 100197c:	e0251593 	mla	r5, r3, r5, r1
 1001980:	e5052078 	str	r2, [r5, #-120]	; 0xffffff88
 1001984:	0a00007b 	beq	1001b78 <_time_tzset+0x404>
 1001988:	e58d2038 	str	r2, [sp, #56]	; 0x38
 100198c:	e3a05001 	mov	r5, #1
 1001990:	e5d43000 	ldrb	r3, [r4]
 1001994:	e1a09005 	mov	r9, r5
 1001998:	e3530000 	cmp	r3, #0
 100199c:	1affffbf 	bne	10018a0 <_time_tzset+0x12c>
 10019a0:	e59f03ac 	ldr	r0, [pc, #940]	; 1001d54 <_time_tzset+0x5e0>
 10019a4:	e28d1020 	add	r1, sp, #32
 10019a8:	e3a02030 	mov	r2, #48	; 0x30
 10019ac:	e08f0000 	add	r0, pc, r0
 10019b0:	eb000656 	bl	1003310 <__GI_memcpy>
 10019b4:	ea000013 	b	1001a08 <_time_tzset+0x294>
 10019b8:	e59f0398 	ldr	r0, [pc, #920]	; 1001d58 <_time_tzset+0x5e4>
 10019bc:	e1a01004 	mov	r1, r4
 10019c0:	e08f0000 	add	r0, pc, r0
 10019c4:	eb000e05 	bl	10051e0 <__GI___libc_open>
 10019c8:	e2505000 	subs	r5, r0, #0
 10019cc:	aa00002b 	bge	1001a80 <_time_tzset+0x30c>
 10019d0:	e59f4384 	ldr	r4, [pc, #900]	; 1001d5c <_time_tzset+0x5e8>
 10019d4:	e3a01000 	mov	r1, #0
 10019d8:	e59f3380 	ldr	r3, [pc, #896]	; 1001d60 <_time_tzset+0x5ec>
 10019dc:	e3a02030 	mov	r2, #48	; 0x30
 10019e0:	e08f4004 	add	r4, pc, r4
 10019e4:	e08f3003 	add	r3, pc, r3
 10019e8:	e1a00004 	mov	r0, r4
 10019ec:	e5c31000 	strb	r1, [r3]
 10019f0:	eb00064e 	bl	1003330 <__GI_memset>
 10019f4:	e59f1368 	ldr	r1, [pc, #872]	; 1001d64 <_time_tzset+0x5f0>
 10019f8:	e2840010 	add	r0, r4, #16
 10019fc:	e08f1001 	add	r1, pc, r1
 1001a00:	e2811003 	add	r1, r1, #3
 1001a04:	eb0006ce 	bl	1003544 <__GI_strcpy>
 1001a08:	e59f3358 	ldr	r3, [pc, #856]	; 1001d68 <_time_tzset+0x5f4>
 1001a0c:	e7972003 	ldr	r2, [r7, r3]
 1001a10:	e59f3354 	ldr	r3, [pc, #852]	; 1001d6c <_time_tzset+0x5f8>
 1001a14:	e08f3003 	add	r3, pc, r3
 1001a18:	e2831010 	add	r1, r3, #16
 1001a1c:	e5821000 	str	r1, [r2]
 1001a20:	e2831028 	add	r1, r3, #40	; 0x28
 1001a24:	e5821004 	str	r1, [r2, #4]
 1001a28:	e59f2340 	ldr	r2, [pc, #832]	; 1001d70 <_time_tzset+0x5fc>
 1001a2c:	e7971002 	ldr	r1, [r7, r2]
 1001a30:	e5d32028 	ldrb	r2, [r3, #40]	; 0x28
 1001a34:	e5933000 	ldr	r3, [r3]
 1001a38:	e2522000 	subs	r2, r2, #0
 1001a3c:	13a02001 	movne	r2, #1
 1001a40:	e5812000 	str	r2, [r1]
 1001a44:	e59f2328 	ldr	r2, [pc, #808]	; 1001d74 <_time_tzset+0x600>
 1001a48:	e7972002 	ldr	r2, [r7, r2]
 1001a4c:	e5823000 	str	r3, [r2]
 1001a50:	e3a01001 	mov	r1, #1
 1001a54:	e1a00008 	mov	r0, r8
 1001a58:	ebfffadf 	bl	10005dc <_pthread_cleanup_pop_restore>
 1001a5c:	e59f2314 	ldr	r2, [pc, #788]	; 1001d78 <_time_tzset+0x604>
 1001a60:	e59f32cc 	ldr	r3, [pc, #716]	; 1001d34 <_time_tzset+0x5c0>
 1001a64:	e08f2002 	add	r2, pc, r2
 1001a68:	e7923003 	ldr	r3, [r2, r3]
 1001a6c:	e5932000 	ldr	r2, [r3]
 1001a70:	e59d3094 	ldr	r3, [sp, #148]	; 0x94
 1001a74:	e0332002 	eors	r2, r3, r2
 1001a78:	0a0000aa 	beq	1001d28 <_time_tzset+0x5b4>
 1001a7c:	ebfff95f 	bl	1000000 <__stack_chk_fail>
 1001a80:	e28d6050 	add	r6, sp, #80	; 0x50
 1001a84:	e3a02044 	mov	r2, #68	; 0x44
 1001a88:	e1a01006 	mov	r1, r6
 1001a8c:	eb000e1b 	bl	1005300 <__GI___libc_read>
 1001a90:	e3500044 	cmp	r0, #68	; 0x44
 1001a94:	e1a09000 	mov	r9, r0
 1001a98:	1affff67 	bne	100183c <_time_tzset+0xc8>
 1001a9c:	e59f12d8 	ldr	r1, [pc, #728]	; 1001d7c <_time_tzset+0x608>
 1001aa0:	e3a02004 	mov	r2, #4
 1001aa4:	e1a00006 	mov	r0, r6
 1001aa8:	e08f1001 	add	r1, pc, r1
 1001aac:	eb0006ab 	bl	1003560 <__GI_strncmp>
 1001ab0:	e3500000 	cmp	r0, #0
 1001ab4:	1affff60 	bne	100183c <_time_tzset+0xc8>
 1001ab8:	e5dd3054 	ldrb	r3, [sp, #84]	; 0x54
 1001abc:	e3530001 	cmp	r3, #1
 1001ac0:	9affff5d 	bls	100183c <_time_tzset+0xc8>
 1001ac4:	e3a02002 	mov	r2, #2
 1001ac8:	e3e01043 	mvn	r1, #67	; 0x43
 1001acc:	e1a00005 	mov	r0, r5
 1001ad0:	eb000fa5 	bl	100596c <__GI_lseek>
 1001ad4:	e3500000 	cmp	r0, #0
 1001ad8:	baffff57 	blt	100183c <_time_tzset+0xc8>
 1001adc:	e1a02009 	mov	r2, r9
 1001ae0:	e1a01006 	mov	r1, r6
 1001ae4:	e1a00005 	mov	r0, r5
 1001ae8:	eb000e04 	bl	1005300 <__GI___libc_read>
 1001aec:	e3500000 	cmp	r0, #0
 1001af0:	daffff51 	ble	100183c <_time_tzset+0xc8>
 1001af4:	e2400001 	sub	r0, r0, #1
 1001af8:	e7d63000 	ldrb	r3, [r6, r0]
 1001afc:	e353000a 	cmp	r3, #10
 1001b00:	07c64000 	strbeq	r4, [r6, r0]
 1001b04:	1affff4c 	bne	100183c <_time_tzset+0xc8>
 1001b08:	e3500000 	cmp	r0, #0
 1001b0c:	0affff4a 	beq	100183c <_time_tzset+0xc8>
 1001b10:	e2403001 	sub	r3, r0, #1
 1001b14:	e7d62003 	ldrb	r2, [r6, r3]
 1001b18:	e352000a 	cmp	r2, #10
 1001b1c:	00864000 	addeq	r4, r6, r0
 1001b20:	0affff45 	beq	100183c <_time_tzset+0xc8>
 1001b24:	e1a00003 	mov	r0, r3
 1001b28:	eafffff6 	b	1001b08 <_time_tzset+0x394>
 1001b2c:	e28ee001 	add	lr, lr, #1
 1001b30:	e4c31001 	strb	r1, [r3], #1
 1001b34:	e35e0007 	cmp	lr, #7
 1001b38:	1affff63 	bne	10018cc <_time_tzset+0x158>
 1001b3c:	eaffffa3 	b	10019d0 <_time_tzset+0x25c>
 1001b40:	e2460001 	sub	r0, r6, #1
 1001b44:	e28d100c 	add	r1, sp, #12
 1001b48:	e2800001 	add	r0, r0, #1
 1001b4c:	ebfffee5 	bl	10016e8 <__GI_localtime_r+0xa0>
 1001b50:	e2504000 	subs	r4, r0, #0
 1001b54:	0affff9d 	beq	10019d0 <_time_tzset+0x25c>
 1001b58:	e5d63000 	ldrb	r3, [r6]
 1001b5c:	e353002d 	cmp	r3, #45	; 0x2d
 1001b60:	059d300c 	ldreq	r3, [sp, #12]
 1001b64:	02633000 	rsbeq	r3, r3, #0
 1001b68:	058d300c 	streq	r3, [sp, #12]
 1001b6c:	eaffff7e 	b	100196c <_time_tzset+0x1f8>
 1001b70:	e1a00006 	mov	r0, r6
 1001b74:	eafffff2 	b	1001b44 <_time_tzset+0x3d0>
 1001b78:	e5d43000 	ldrb	r3, [r4]
 1001b7c:	e3530000 	cmp	r3, #0
 1001b80:	1a000005 	bne	1001b9c <_time_tzset+0x428>
 1001b84:	e59d3000 	ldr	r3, [sp]
 1001b88:	e3530000 	cmp	r3, #0
 1001b8c:	1a000036 	bne	1001c6c <_time_tzset+0x4f8>
 1001b90:	e59f41e8 	ldr	r4, [pc, #488]	; 1001d80 <_time_tzset+0x60c>
 1001b94:	e08f4004 	add	r4, pc, r4
 1001b98:	e2844026 	add	r4, r4, #38	; 0x26
 1001b9c:	e59fb1e0 	ldr	fp, [pc, #480]	; 1001d84 <_time_tzset+0x610>
 1001ba0:	e3a06002 	mov	r6, #2
 1001ba4:	e59f31dc 	ldr	r3, [pc, #476]	; 1001d88 <_time_tzset+0x614>
 1001ba8:	e3a05000 	mov	r5, #0
 1001bac:	e08fb00b 	add	fp, pc, fp
 1001bb0:	e28bb00a 	add	fp, fp, #10
 1001bb4:	e08f3003 	add	r3, pc, r3
 1001bb8:	e58d3000 	str	r3, [sp]
 1001bbc:	e5d43000 	ldrb	r3, [r4]
 1001bc0:	e353002c 	cmp	r3, #44	; 0x2c
 1001bc4:	1affff81 	bne	10019d0 <_time_tzset+0x25c>
 1001bc8:	e5d4e001 	ldrb	lr, [r4, #1]
 1001bcc:	e284c002 	add	ip, r4, #2
 1001bd0:	e35e004d 	cmp	lr, #77	; 0x4d
 1001bd4:	03a0100c 	moveq	r1, #12
 1001bd8:	01a0300b 	moveq	r3, fp
 1001bdc:	0a00000a 	beq	1001c0c <_time_tzset+0x498>
 1001be0:	e35e004a 	cmp	lr, #74	; 0x4a
 1001be4:	059d3000 	ldreq	r3, [sp]
 1001be8:	0300116d 	movweq	r1, #365	; 0x16d
 1001bec:	02833012 	addeq	r3, r3, #18
 1001bf0:	0a000005 	beq	1001c0c <_time_tzset+0x498>
 1001bf4:	e59f3190 	ldr	r3, [pc, #400]	; 1001d8c <_time_tzset+0x618>
 1001bf8:	e284c001 	add	ip, r4, #1
 1001bfc:	e3a0e000 	mov	lr, #0
 1001c00:	e300116d 	movw	r1, #365	; 0x16d
 1001c04:	e08f3003 	add	r3, pc, r3
 1001c08:	e2833010 	add	r3, r3, #16
 1001c0c:	e3a00018 	mov	r0, #24
 1001c10:	e28d2098 	add	r2, sp, #152	; 0x98
 1001c14:	e0000590 	mul	r0, r0, r5
 1001c18:	e28d4098 	add	r4, sp, #152	; 0x98
 1001c1c:	e35e004d 	cmp	lr, #77	; 0x4d
 1001c20:	e0822000 	add	r2, r2, r0
 1001c24:	e0840000 	add	r0, r4, r0
 1001c28:	e242206a 	sub	r2, r2, #106	; 0x6a
 1001c2c:	e1a0400c 	mov	r4, ip
 1001c30:	12422004 	subne	r2, r2, #4
 1001c34:	e140e6ba 	strh	lr, [r0, #-106]	; 0xffffff96
 1001c38:	e1a09004 	mov	r9, r4
 1001c3c:	e3a00003 	mov	r0, #3
 1001c40:	e3a0c000 	mov	ip, #0
 1001c44:	e5d9e000 	ldrb	lr, [r9]
 1001c48:	e1a04009 	mov	r4, r9
 1001c4c:	e2899001 	add	r9, r9, #1
 1001c50:	e24ee030 	sub	lr, lr, #48	; 0x30
 1001c54:	e6efa07e 	uxtb	sl, lr
 1001c58:	e35a0009 	cmp	sl, #9
 1001c5c:	9a000008 	bls	1001c84 <_time_tzset+0x510>
 1001c60:	e3500003 	cmp	r0, #3
 1001c64:	0affff59 	beq	10019d0 <_time_tzset+0x25c>
 1001c68:	ea00000a 	b	1001c98 <_time_tzset+0x524>
 1001c6c:	e59f411c 	ldr	r4, [pc, #284]	; 1001d90 <_time_tzset+0x61c>
 1001c70:	e08f4004 	add	r4, pc, r4
 1001c74:	e2844016 	add	r4, r4, #22
 1001c78:	eaffffc7 	b	1001b9c <_time_tzset+0x428>
 1001c7c:	e1a06005 	mov	r6, r5
 1001c80:	eaffffcd 	b	1001bbc <_time_tzset+0x448>
 1001c84:	e2500001 	subs	r0, r0, #1
 1001c88:	e3a0a00a 	mov	sl, #10
 1001c8c:	e02cec9a 	mla	ip, sl, ip, lr
 1001c90:	e1a04009 	mov	r4, r9
 1001c94:	1affffea 	bne	1001c44 <_time_tzset+0x4d0>
 1001c98:	e5d30002 	ldrb	r0, [r3, #2]
 1001c9c:	e04c0000 	sub	r0, ip, r0
 1001ca0:	e1500001 	cmp	r0, r1
 1001ca4:	8affff49 	bhi	10019d0 <_time_tzset+0x25c>
 1001ca8:	e5d31001 	ldrb	r1, [r3, #1]
 1001cac:	e3510000 	cmp	r1, #0
 1001cb0:	0a000002 	beq	1001cc0 <_time_tzset+0x54c>
 1001cb4:	e4d40001 	ldrb	r0, [r4], #1
 1001cb8:	e1500001 	cmp	r0, r1
 1001cbc:	1affff43 	bne	10019d0 <_time_tzset+0x25c>
 1001cc0:	e5f31003 	ldrb	r1, [r3, #3]!
 1001cc4:	e162c0b2 	strh	ip, [r2, #-2]!
 1001cc8:	e3510000 	cmp	r1, #0
 1001ccc:	1affffd9 	bne	1001c38 <_time_tzset+0x4c4>
 1001cd0:	e3013c20 	movw	r3, #7200	; 0x1c20
 1001cd4:	e58d300c 	str	r3, [sp, #12]
 1001cd8:	e5d43000 	ldrb	r3, [r4]
 1001cdc:	e353002f 	cmp	r3, #47	; 0x2f
 1001ce0:	1a000004 	bne	1001cf8 <_time_tzset+0x584>
 1001ce4:	e2840001 	add	r0, r4, #1
 1001ce8:	e28d100c 	add	r1, sp, #12
 1001cec:	ebfffe7d 	bl	10016e8 <__GI_localtime_r+0xa0>
 1001cf0:	e2504000 	subs	r4, r0, #0
 1001cf4:	0affff35 	beq	10019d0 <_time_tzset+0x25c>
 1001cf8:	e28d2098 	add	r2, sp, #152	; 0x98
 1001cfc:	e3a03018 	mov	r3, #24
 1001d00:	e0252593 	mla	r5, r3, r5, r2
 1001d04:	e59d300c 	ldr	r3, [sp, #12]
 1001d08:	e5053074 	str	r3, [r5, #-116]	; 0xffffff8c
 1001d0c:	e3a05001 	mov	r5, #1
 1001d10:	e1560005 	cmp	r6, r5
 1001d14:	1affffd8 	bne	1001c7c <_time_tzset+0x508>
 1001d18:	e5d43000 	ldrb	r3, [r4]
 1001d1c:	e3530000 	cmp	r3, #0
 1001d20:	0affff1e 	beq	10019a0 <_time_tzset+0x22c>
 1001d24:	eaffff29 	b	10019d0 <_time_tzset+0x25c>
 1001d28:	e28dd09c 	add	sp, sp, #156	; 0x9c
 1001d2c:	e8bd8ff0 	pop	{r4, r5, r6, r7, r8, r9, sl, fp, pc}
 1001d30:	0001c878 	.word	0x0001c878
 1001d34:	00000024 	.word	0x00000024
 1001d38:	0001c864 	.word	0x0001c864
 1001d3c:	00000018 	.word	0x00000018
 1001d40:	0000004c 	.word	0x0000004c
 1001d44:	0000aed0 	.word	0x0000aed0
 1001d48:	0000ae9c 	.word	0x0000ae9c
 1001d4c:	0001ca80 	.word	0x0001ca80
 1001d50:	0001c8d8 	.word	0x0001c8d8
 1001d54:	0001ef10 	.word	0x0001ef10
 1001d58:	0000acdc 	.word	0x0000acdc
 1001d5c:	0001eedc 	.word	0x0001eedc
 1001d60:	0001c900 	.word	0x0001c900
 1001d64:	0000acb4 	.word	0x0000acb4
 1001d68:	00000044 	.word	0x00000044
 1001d6c:	0001eea8 	.word	0x0001eea8
 1001d70:	00000010 	.word	0x00000010
 1001d74:	00000068 	.word	0x00000068
 1001d78:	0001c594 	.word	0x0001c594
 1001d7c:	0000ac03 	.word	0x0000ac03
 1001d80:	0000ab1c 	.word	0x0000ab1c
 1001d84:	0000ab04 	.word	0x0000ab04
 1001d88:	0000aafc 	.word	0x0000aafc
 1001d8c:	0000aaac 	.word	0x0000aaac
 1001d90:	0000aa40 	.word	0x0000aa40

01001d94 <__GI_tzset>:
 1001d94:	e92d4010 	push	{r4, lr}
 1001d98:	e3a00000 	mov	r0, #0
 1001d9c:	eb000f23 	bl	1005a30 <__GI_time>
 1001da0:	e59f3010 	ldr	r3, [pc, #16]	; 1001db8 <__GI_tzset+0x24>
 1001da4:	e8bd4010 	pop	{r4, lr}
 1001da8:	e1500003 	cmp	r0, r3
 1001dac:	c3a00000 	movgt	r0, #0
 1001db0:	d3a00001 	movle	r0, #1
 1001db4:	eafffe6e 	b	1001774 <_time_tzset>
 1001db8:	45984eff 	.word	0x45984eff

01001dbc <__time_localtime_tzi>:
 1001dbc:	e92d4ff0 	push	{r4, r5, r6, r7, r8, r9, sl, fp, lr}
 1001dc0:	e24dd034 	sub	sp, sp, #52	; 0x34
 1001dc4:	e59f3328 	ldr	r3, [pc, #808]	; 10020f4 <__time_localtime_tzi+0x338>
 1001dc8:	e1a06001 	mov	r6, r1
 1001dcc:	e1a09002 	mov	r9, r2
 1001dd0:	e3a07002 	mov	r7, #2
 1001dd4:	e3a04000 	mov	r4, #0
 1001dd8:	e08f3003 	add	r3, pc, r3
 1001ddc:	e58d0010 	str	r0, [sp, #16]
 1001de0:	e58d3000 	str	r3, [sp]
 1001de4:	e3a08018 	mov	r8, #24
 1001de8:	e59d2010 	ldr	r2, [sp, #16]
 1001dec:	e0080498 	mul	r8, r8, r4
 1001df0:	e59f1300 	ldr	r1, [pc, #768]	; 10020f8 <__time_localtime_tzi+0x33c>
 1001df4:	e5922000 	ldr	r2, [r2]
 1001df8:	e28d002c 	add	r0, sp, #44	; 0x2c
 1001dfc:	e1520001 	cmp	r2, r1
 1001e00:	e0895008 	add	r5, r9, r8
 1001e04:	e2855010 	add	r5, r5, #16
 1001e08:	e7993008 	ldr	r3, [r9, r8]
 1001e0c:	d3e01006 	mvnle	r1, #6
 1001e10:	c3a01007 	movgt	r1, #7
 1001e14:	d2633a93 	rsble	r3, r3, #602112	; 0x93000
 1001e18:	c2433a93 	subgt	r3, r3, #602112	; 0x93000
 1001e1c:	d2833d2a 	addle	r3, r3, #2688	; 0xa80
 1001e20:	c2433d2a 	subgt	r3, r3, #2688	; 0xa80
 1001e24:	e0823003 	add	r3, r2, r3
 1001e28:	e1a02006 	mov	r2, r6
 1001e2c:	e58d302c 	str	r3, [sp, #44]	; 0x2c
 1001e30:	eb00111f 	bl	10062b4 <_time_t2tm>
 1001e34:	e7993008 	ldr	r3, [r9, r8]
 1001e38:	e59d2000 	ldr	r2, [sp]
 1001e3c:	e2633000 	rsb	r3, r3, #0
 1001e40:	e5863024 	str	r3, [r6, #36]	; 0x24
 1001e44:	e59f32b0 	ldr	r3, [pc, #688]	; 10020fc <__time_localtime_tzi+0x340>
 1001e48:	e5864020 	str	r4, [r6, #32]
 1001e4c:	e7928003 	ldr	r8, [r2, r3]
 1001e50:	e2884004 	add	r4, r8, #4
 1001e54:	e1a01005 	mov	r1, r5
 1001e58:	e1a00004 	mov	r0, r4
 1001e5c:	eb00055b 	bl	10033d0 <__GI_strcmp>
 1001e60:	e3500000 	cmp	r0, #0
 1001e64:	0a00000b 	beq	1001e98 <__time_localtime_tzi+0xdc>
 1001e68:	e5988000 	ldr	r8, [r8]
 1001e6c:	e3580000 	cmp	r8, #0
 1001e70:	1afffff6 	bne	1001e50 <__time_localtime_tzi+0x94>
 1001e74:	e3a01007 	mov	r1, #7
 1001e78:	e1a00005 	mov	r0, r5
 1001e7c:	eb000634 	bl	1003754 <__GI_strnlen>
 1001e80:	e59f3278 	ldr	r3, [pc, #632]	; 1002100 <__time_localtime_tzi+0x344>
 1001e84:	e59d2000 	ldr	r2, [sp]
 1001e88:	e7924003 	ldr	r4, [r2, r3]
 1001e8c:	e3500006 	cmp	r0, #6
 1001e90:	da000062 	ble	1002020 <__time_localtime_tzi+0x264>
 1001e94:	e2844004 	add	r4, r4, #4
 1001e98:	e3570001 	cmp	r7, #1
 1001e9c:	e5864028 	str	r4, [r6, #40]	; 0x28
 1001ea0:	0a00005b 	beq	1002014 <__time_localtime_tzi+0x258>
 1001ea4:	e5d94028 	ldrb	r4, [r9, #40]	; 0x28
 1001ea8:	e3540000 	cmp	r4, #0
 1001eac:	0a000053 	beq	1002000 <__time_localtime_tzi+0x244>
 1001eb0:	e5963008 	ldr	r3, [r6, #8]
 1001eb4:	e3a02018 	mov	r2, #24
 1001eb8:	e596801c 	ldr	r8, [r6, #28]
 1001ebc:	e3a01e19 	mov	r1, #400	; 0x190
 1001ec0:	e5960014 	ldr	r0, [r6, #20]
 1001ec4:	e0283892 	mla	r8, r2, r8, r3
 1001ec8:	e5962004 	ldr	r2, [r6, #4]
 1001ecc:	e3a0303c 	mov	r3, #60	; 0x3c
 1001ed0:	e0282893 	mla	r8, r3, r8, r2
 1001ed4:	e5962000 	ldr	r2, [r6]
 1001ed8:	e0282893 	mla	r8, r3, r8, r2
 1001edc:	eb002184 	bl	100a4f4 <__aeabi_idivmod>
 1001ee0:	e3110003 	tst	r1, #3
 1001ee4:	e2817e76 	add	r7, r1, #1888	; 0x760
 1001ee8:	e287700c 	add	r7, r7, #12
 1001eec:	e1a04001 	mov	r4, r1
 1001ef0:	13a05000 	movne	r5, #0
 1001ef4:	1a00000a 	bne	1001f24 <__time_localtime_tzi+0x168>
 1001ef8:	e3a01064 	mov	r1, #100	; 0x64
 1001efc:	e1a00007 	mov	r0, r7
 1001f00:	eb00217b 	bl	100a4f4 <__aeabi_idivmod>
 1001f04:	e3510000 	cmp	r1, #0
 1001f08:	13a05001 	movne	r5, #1
 1001f0c:	1a000004 	bne	1001f24 <__time_localtime_tzi+0x168>
 1001f10:	e3a01e19 	mov	r1, #400	; 0x190
 1001f14:	e1a00007 	mov	r0, r7
 1001f18:	eb002175 	bl	100a4f4 <__aeabi_idivmod>
 1001f1c:	e16f5f11 	clz	r5, r1
 1001f20:	e1a052a5 	lsr	r5, r5, #5
 1001f24:	e59f31d8 	ldr	r3, [pc, #472]	; 1002104 <__time_localtime_tzi+0x348>
 1001f28:	e2844e76 	add	r4, r4, #1888	; 0x760
 1001f2c:	e284400b 	add	r4, r4, #11
 1001f30:	e3a01007 	mov	r1, #7
 1001f34:	e0cba394 	smull	sl, fp, r4, r3
 1001f38:	e1a00fc4 	asr	r0, r4, #31
 1001f3c:	e0832394 	umull	r2, r3, r4, r3
 1001f40:	e0877144 	add	r7, r7, r4, asr #2
 1001f44:	e3a04000 	mov	r4, #0
 1001f48:	e04002cb 	sub	r0, r0, fp, asr #5
 1001f4c:	e0870000 	add	r0, r7, r0
 1001f50:	e2897018 	add	r7, r9, #24
 1001f54:	e0800133 	add	r0, r0, r3, lsr r1
 1001f58:	eb002165 	bl	100a4f4 <__aeabi_idivmod>
 1001f5c:	e59f21a4 	ldr	r2, [pc, #420]	; 1002108 <__time_localtime_tzi+0x34c>
 1001f60:	e2893048 	add	r3, r9, #72	; 0x48
 1001f64:	e58d300c 	str	r3, [sp, #12]
 1001f68:	e08f2002 	add	r2, pc, r2
 1001f6c:	e58d2014 	str	r2, [sp, #20]
 1001f70:	e2052001 	and	r2, r5, #1
 1001f74:	e1a03004 	mov	r3, r4
 1001f78:	e58d1004 	str	r1, [sp, #4]
 1001f7c:	e59f1188 	ldr	r1, [pc, #392]	; 100210c <__time_localtime_tzi+0x350>
 1001f80:	e08f1001 	add	r1, pc, r1
 1001f84:	e58d1018 	str	r1, [sp, #24]
 1001f88:	e2251001 	eor	r1, r5, #1
 1001f8c:	e58d101c 	str	r1, [sp, #28]
 1001f90:	e15710fa 	ldrsh	r1, [r7, #-10]
 1001f94:	e15751f0 	ldrsh	r5, [r7, #-16]
 1001f98:	e351004a 	cmp	r1, #74	; 0x4a
 1001f9c:	1a00002d 	bne	1002058 <__time_localtime_tzi+0x29c>
 1001fa0:	e59d101c 	ldr	r1, [sp, #28]
 1001fa4:	e355003b 	cmp	r5, #59	; 0x3b
 1001fa8:	d3811001 	orrle	r1, r1, #1
 1001fac:	e3510000 	cmp	r1, #0
 1001fb0:	12455001 	subne	r5, r5, #1
 1001fb4:	e3530000 	cmp	r3, #0
 1001fb8:	0a000006 	beq	1001fd8 <__time_localtime_tzi+0x21c>
 1001fbc:	e5173030 	ldr	r3, [r7, #-48]	; 0xffffffd0
 1001fc0:	e5171018 	ldr	r1, [r7, #-24]	; 0xffffffe8
 1001fc4:	e0433001 	sub	r3, r3, r1
 1001fc8:	e0888003 	add	r8, r8, r3
 1001fcc:	e59d3008 	ldr	r3, [sp, #8]
 1001fd0:	e1550003 	cmp	r5, r3
 1001fd4:	b2844001 	addlt	r4, r4, #1
 1001fd8:	e5173014 	ldr	r3, [r7, #-20]	; 0xffffffec
 1001fdc:	e2877018 	add	r7, r7, #24
 1001fe0:	e59f1128 	ldr	r1, [pc, #296]	; 1002110 <__time_localtime_tzi+0x354>
 1001fe4:	e0233591 	mla	r3, r1, r5, r3
 1001fe8:	e59d100c 	ldr	r1, [sp, #12]
 1001fec:	e1530008 	cmp	r3, r8
 1001ff0:	e3a03001 	mov	r3, #1
 1001ff4:	d2844001 	addle	r4, r4, #1
 1001ff8:	e1510007 	cmp	r1, r7
 1001ffc:	1a000013 	bne	1002050 <__time_localtime_tzi+0x294>
 1002000:	e2044001 	and	r4, r4, #1
 1002004:	e3a07001 	mov	r7, #1
 1002008:	e3540000 	cmp	r4, #0
 100200c:	e5864020 	str	r4, [r6, #32]
 1002010:	1affff73 	bne	1001de4 <__time_localtime_tzi+0x28>
 1002014:	e1a00006 	mov	r0, r6
 1002018:	e28dd034 	add	sp, sp, #52	; 0x34
 100201c:	e8bd8ff0 	pop	{r4, r5, r6, r7, r8, r9, sl, fp, pc}
 1002020:	e2800008 	add	r0, r0, #8
 1002024:	eb0006ed 	bl	1003be0 <malloc>
 1002028:	e3500000 	cmp	r0, #0
 100202c:	0affff98 	beq	1001e94 <__time_localtime_tzi+0xd8>
 1002030:	e5943000 	ldr	r3, [r4]
 1002034:	e1a01005 	mov	r1, r5
 1002038:	e5840000 	str	r0, [r4]
 100203c:	e2800004 	add	r0, r0, #4
 1002040:	e5003004 	str	r3, [r0, #-4]
 1002044:	eb00053e 	bl	1003544 <__GI_strcpy>
 1002048:	e1a04000 	mov	r4, r0
 100204c:	eaffff91 	b	1001e98 <__time_localtime_tzi+0xdc>
 1002050:	e58d5008 	str	r5, [sp, #8]
 1002054:	eaffffcd 	b	1001f90 <__time_localtime_tzi+0x1d4>
 1002058:	e351004d 	cmp	r1, #77	; 0x4d
 100205c:	1affffd4 	bne	1001fb4 <__time_localtime_tzi+0x1f8>
 1002060:	e15710fc 	ldrsh	r1, [r7, #-12]
 1002064:	e59d0014 	ldr	r0, [sp, #20]
 1002068:	e58d3020 	str	r3, [sp, #32]
 100206c:	e0800001 	add	r0, r0, r1
 1002070:	e061b281 	rsb	fp, r1, r1, lsl #5
 1002074:	e59d3004 	ldr	r3, [sp, #4]
 1002078:	e550a001 	ldrb	sl, [r0, #-1]
 100207c:	e58d2024 	str	r2, [sp, #36]	; 0x24
 1002080:	e04bb00a 	sub	fp, fp, sl
 1002084:	e28aa01f 	add	sl, sl, #31
 1002088:	e35b003a 	cmp	fp, #58	; 0x3a
 100208c:	d3a00000 	movle	r0, #0
 1002090:	c2020001 	andgt	r0, r2, #1
 1002094:	e3500000 	cmp	r0, #0
 1002098:	e59d0018 	ldr	r0, [sp, #24]
 100209c:	128bb001 	addne	fp, fp, #1
 10020a0:	e7d00001 	ldrb	r0, [r0, r1]
 10020a4:	e3510002 	cmp	r1, #2
 10020a8:	13a01000 	movne	r1, #0
 10020ac:	02021001 	andeq	r1, r2, #1
 10020b0:	e3510000 	cmp	r1, #0
 10020b4:	e3a01007 	mov	r1, #7
 10020b8:	e04aa000 	sub	sl, sl, r0
 10020bc:	e083000b 	add	r0, r3, fp
 10020c0:	128aa001 	addne	sl, sl, #1
 10020c4:	eb00210a 	bl	100a4f4 <__aeabi_idivmod>
 10020c8:	e3a00007 	mov	r0, #7
 10020cc:	e59d3020 	ldr	r3, [sp, #32]
 10020d0:	e59d2024 	ldr	r2, [sp, #36]	; 0x24
 10020d4:	e0551001 	subs	r1, r5, r1
 10020d8:	e15750be 	ldrh	r5, [r7, #-14]
 10020dc:	52411007 	subpl	r1, r1, #7
 10020e0:	e1051085 	smlabb	r5, r5, r0, r1
 10020e4:	e155000a 	cmp	r5, sl
 10020e8:	a2455007 	subge	r5, r5, #7
 10020ec:	e08b5005 	add	r5, fp, r5
 10020f0:	eaffffaf 	b	1001fb4 <__time_localtime_tzi+0x1f8>
 10020f4:	0001c220 	.word	0x0001c220
 10020f8:	7ff6c57f 	.word	0x7ff6c57f
 10020fc:	000000c0 	.word	0x000000c0
 1002100:	00000014 	.word	0x00000014
 1002104:	51eb851f 	.word	0x51eb851f
 1002108:	0000a77e 	.word	0x0000a77e
 100210c:	0000a766 	.word	0x0000a766
 1002110:	00015180 	.word	0x00015180

01002114 <__GI_sprintf>:
 1002114:	e92d000e 	push	{r1, r2, r3}
 1002118:	e92d4003 	push	{r0, r1, lr}
 100211c:	e3e01000 	mvn	r1, #0
 1002120:	e28d3010 	add	r3, sp, #16
 1002124:	e59d200c 	ldr	r2, [sp, #12]
 1002128:	e58d3004 	str	r3, [sp, #4]
 100212c:	eb000003 	bl	1002140 <__GI_vsnprintf>
 1002130:	e28dd008 	add	sp, sp, #8
 1002134:	e49de004 	pop	{lr}		; (ldr lr, [sp], #4)
 1002138:	e28dd00c 	add	sp, sp, #12
 100213c:	e12fff1e 	bx	lr

01002140 <__GI_vsnprintf>:
 1002140:	e92d4010 	push	{r4, lr}
 1002144:	e1e04000 	mvn	r4, r0
 1002148:	e24dd058 	sub	sp, sp, #88	; 0x58
 100214c:	e1540001 	cmp	r4, r1
 1002150:	e1a0e002 	mov	lr, r2
 1002154:	e3a0c000 	mov	ip, #0
 1002158:	21a04001 	movcs	r4, r1
 100215c:	e28d2004 	add	r2, sp, #4
 1002160:	e58dc028 	str	ip, [sp, #40]	; 0x28
 1002164:	e1a0100e 	mov	r1, lr
 1002168:	e58d2024 	str	r2, [sp, #36]	; 0x24
 100216c:	e3e02001 	mvn	r2, #1
 1002170:	e58dc02c 	str	ip, [sp, #44]	; 0x2c
 1002174:	e58dc030 	str	ip, [sp, #48]	; 0x30
 1002178:	e58dc034 	str	ip, [sp, #52]	; 0x34
 100217c:	e58d2004 	str	r2, [sp, #4]
 1002180:	e3a020d0 	mov	r2, #208	; 0xd0
 1002184:	e5cdc002 	strb	ip, [sp, #2]
 1002188:	e1cd20b0 	strh	r2, [sp]
 100218c:	e3a02001 	mov	r2, #1
 1002190:	e58dc040 	str	ip, [sp, #64]	; 0x40
 1002194:	e58d2048 	str	r2, [sp, #72]	; 0x48
 1002198:	e1a02003 	mov	r2, r3
 100219c:	e58dc04c 	str	ip, [sp, #76]	; 0x4c
 10021a0:	e58dc050 	str	ip, [sp, #80]	; 0x50
 10021a4:	e58dc054 	str	ip, [sp, #84]	; 0x54
 10021a8:	e58dc020 	str	ip, [sp, #32]
 10021ac:	e080c004 	add	ip, r0, r4
 10021b0:	e58d0008 	str	r0, [sp, #8]
 10021b4:	e58d0010 	str	r0, [sp, #16]
 10021b8:	e58d0014 	str	r0, [sp, #20]
 10021bc:	e58d0018 	str	r0, [sp, #24]
 10021c0:	e1a0000d 	mov	r0, sp
 10021c4:	e58dc00c 	str	ip, [sp, #12]
 10021c8:	e58dc01c 	str	ip, [sp, #28]
 10021cc:	eb00003e 	bl	10022cc <_vfprintf_internal>
 10021d0:	e3540000 	cmp	r4, #0
 10021d4:	0a000006 	beq	10021f4 <__GI_vsnprintf+0xb4>
 10021d8:	e1cd20dc 	ldrd	r2, [sp, #12]
 10021dc:	e1530002 	cmp	r3, r2
 10021e0:	e3a02000 	mov	r2, #0
 10021e4:	02433001 	subeq	r3, r3, #1
 10021e8:	058d3010 	streq	r3, [sp, #16]
 10021ec:	e59d3010 	ldr	r3, [sp, #16]
 10021f0:	e5c32000 	strb	r2, [r3]
 10021f4:	e28dd058 	add	sp, sp, #88	; 0x58
 10021f8:	e8bd8010 	pop	{r4, pc}
 10021fc:	e92d40f7 	push	{r0, r1, r2, r4, r5, r6, r7, lr}
 1002200:	e28d7004 	add	r7, sp, #4
 1002204:	e1a06000 	mov	r6, r0
 1002208:	e1a05002 	mov	r5, r2
 100220c:	e1a04002 	mov	r4, r2
 1002210:	e5cd1004 	strb	r1, [sp, #4]
 1002214:	e3540000 	cmp	r4, #0
 1002218:	0a000005 	beq	1002234 <__GI_vsnprintf+0xf4>
 100221c:	e1a02006 	mov	r2, r6
 1002220:	e3a01001 	mov	r1, #1
 1002224:	e1a00007 	mov	r0, r7
 1002228:	eb0012c9 	bl	1006d54 <__stdio_fwrite>
 100222c:	e3500001 	cmp	r0, #1
 1002230:	0a000002 	beq	1002240 <__GI_vsnprintf+0x100>
 1002234:	e0450004 	sub	r0, r5, r4
 1002238:	e28dd00c 	add	sp, sp, #12
 100223c:	e8bd80f0 	pop	{r4, r5, r6, r7, pc}
 1002240:	e2444001 	sub	r4, r4, #1
 1002244:	eafffff2 	b	1002214 <__GI_vsnprintf+0xd4>
 1002248:	e92d47f0 	push	{r4, r5, r6, r7, r8, r9, sl, lr}
 100224c:	e2114080 	ands	r4, r1, #128	; 0x80
 1002250:	e1a07000 	mov	r7, r0
 1002254:	e1a05002 	mov	r5, r2
 1002258:	e1a08003 	mov	r8, r3
 100225c:	0a000018 	beq	10022c4 <__GI_vsnprintf+0x184>
 1002260:	e1a00003 	mov	r0, r3
 1002264:	e1a09001 	mov	r9, r1
 1002268:	eb000460 	bl	10033f0 <__GI_strlen>
 100226c:	e0455000 	sub	r5, r5, r0
 1002270:	e1a06000 	mov	r6, r0
 1002274:	e3550000 	cmp	r5, #0
 1002278:	d3a04000 	movle	r4, #0
 100227c:	da000006 	ble	100229c <__GI_vsnprintf+0x15c>
 1002280:	e209107f 	and	r1, r9, #127	; 0x7f
 1002284:	e1a02005 	mov	r2, r5
 1002288:	e1a00007 	mov	r0, r7
 100228c:	ebffffda 	bl	10021fc <__GI_vsnprintf+0xbc>
 1002290:	e1550000 	cmp	r5, r0
 1002294:	e1a04000 	mov	r4, r0
 1002298:	1a000007 	bne	10022bc <__GI_vsnprintf+0x17c>
 100229c:	e3560000 	cmp	r6, #0
 10022a0:	d3a00000 	movle	r0, #0
 10022a4:	da000003 	ble	10022b8 <__GI_vsnprintf+0x178>
 10022a8:	e1a02007 	mov	r2, r7
 10022ac:	e1a01006 	mov	r1, r6
 10022b0:	e1a00008 	mov	r0, r8
 10022b4:	eb0012a6 	bl	1006d54 <__stdio_fwrite>
 10022b8:	e0844000 	add	r4, r4, r0
 10022bc:	e1a00004 	mov	r0, r4
 10022c0:	e8bd87f0 	pop	{r4, r5, r6, r7, r8, r9, sl, pc}
 10022c4:	e1a06002 	mov	r6, r2
 10022c8:	eafffff3 	b	100229c <__GI_vsnprintf+0x15c>

010022cc <_vfprintf_internal>:
 10022cc:	e92d4ff0 	push	{r4, r5, r6, r7, r8, r9, sl, fp, lr}
 10022d0:	e1a05002 	mov	r5, r2
 10022d4:	e59f26a4 	ldr	r2, [pc, #1700]	; 1002980 <_vfprintf_internal+0x6b4>
 10022d8:	e24ddf59 	sub	sp, sp, #356	; 0x164
 10022dc:	e59f36a0 	ldr	r3, [pc, #1696]	; 1002984 <_vfprintf_internal+0x6b8>
 10022e0:	e28db040 	add	fp, sp, #64	; 0x40
 10022e4:	e08f2002 	add	r2, pc, r2
 10022e8:	e1a09000 	mov	r9, r0
 10022ec:	e1a0000b 	mov	r0, fp
 10022f0:	e1a04001 	mov	r4, r1
 10022f4:	e7923003 	ldr	r3, [r2, r3]
 10022f8:	e5933000 	ldr	r3, [r3]
 10022fc:	e58d315c 	str	r3, [sp, #348]	; 0x15c
 1002300:	e3a03000 	mov	r3, #0
 1002304:	eb0001a9 	bl	10029b0 <_ppfs_init>
 1002308:	e3500000 	cmp	r0, #0
 100230c:	aa000011 	bge	1002358 <_vfprintf_internal+0x8c>
 1002310:	e59d4040 	ldr	r4, [sp, #64]	; 0x40
 1002314:	e1a00004 	mov	r0, r4
 1002318:	eb000434 	bl	10033f0 <__GI_strlen>
 100231c:	e2501000 	subs	r1, r0, #0
 1002320:	0a000002 	beq	1002330 <_vfprintf_internal+0x64>
 1002324:	e1a02009 	mov	r2, r9
 1002328:	e1a00004 	mov	r0, r4
 100232c:	eb001288 	bl	1006d54 <__stdio_fwrite>
 1002330:	e3e08000 	mvn	r8, #0
 1002334:	e59f264c 	ldr	r2, [pc, #1612]	; 1002988 <_vfprintf_internal+0x6bc>
 1002338:	e59f3644 	ldr	r3, [pc, #1604]	; 1002984 <_vfprintf_internal+0x6b8>
 100233c:	e08f2002 	add	r2, pc, r2
 1002340:	e7923003 	ldr	r3, [r2, r3]
 1002344:	e5932000 	ldr	r2, [r3]
 1002348:	e59d315c 	ldr	r3, [sp, #348]	; 0x15c
 100234c:	e0332002 	eors	r2, r3, r2
 1002350:	0a000187 	beq	1002974 <_vfprintf_internal+0x6a8>
 1002354:	ebfff729 	bl	1000000 <__stack_chk_fail>
 1002358:	e1a0000b 	mov	r0, fp
 100235c:	e1a01005 	mov	r1, r5
 1002360:	eb0001b8 	bl	1002a48 <_ppfs_prepargs>
 1002364:	e59f3620 	ldr	r3, [pc, #1568]	; 100298c <_vfprintf_internal+0x6c0>
 1002368:	e1a00004 	mov	r0, r4
 100236c:	e3a08000 	mov	r8, #0
 1002370:	e08f3003 	add	r3, pc, r3
 1002374:	e58d3018 	str	r3, [sp, #24]
 1002378:	e28d3024 	add	r3, sp, #36	; 0x24
 100237c:	e58d3014 	str	r3, [sp, #20]
 1002380:	e5d43000 	ldrb	r3, [r4]
 1002384:	e3530000 	cmp	r3, #0
 1002388:	13530025 	cmpne	r3, #37	; 0x25
 100238c:	1a000033 	bne	1002460 <_vfprintf_internal+0x194>
 1002390:	e1540000 	cmp	r4, r0
 1002394:	0a000008 	beq	10023bc <_vfprintf_internal+0xf0>
 1002398:	e0445000 	sub	r5, r4, r0
 100239c:	e3550000 	cmp	r5, #0
 10023a0:	daffffe2 	ble	1002330 <_vfprintf_internal+0x64>
 10023a4:	e1a02009 	mov	r2, r9
 10023a8:	e1a01005 	mov	r1, r5
 10023ac:	eb001268 	bl	1006d54 <__stdio_fwrite>
 10023b0:	e1550000 	cmp	r5, r0
 10023b4:	1affffdd 	bne	1002330 <_vfprintf_internal+0x64>
 10023b8:	e0888005 	add	r8, r8, r5
 10023bc:	e5d43000 	ldrb	r3, [r4]
 10023c0:	e3530000 	cmp	r3, #0
 10023c4:	0affffda 	beq	1002334 <_vfprintf_internal+0x68>
 10023c8:	e5d43001 	ldrb	r3, [r4, #1]
 10023cc:	e2840001 	add	r0, r4, #1
 10023d0:	e3530025 	cmp	r3, #37	; 0x25
 10023d4:	02844002 	addeq	r4, r4, #2
 10023d8:	0affffe8 	beq	1002380 <_vfprintf_internal+0xb4>
 10023dc:	e58d0040 	str	r0, [sp, #64]	; 0x40
 10023e0:	e1a0000b 	mov	r0, fp
 10023e4:	e3a03000 	mov	r3, #0
 10023e8:	e58d3020 	str	r3, [sp, #32]
 10023ec:	eb000205 	bl	1002c08 <_ppfs_parsespec>
 10023f0:	e1a0000b 	mov	r0, fp
 10023f4:	eb0001a1 	bl	1002a80 <_ppfs_setargs>
 10023f8:	e59d3058 	ldr	r3, [sp, #88]	; 0x58
 10023fc:	e5dd1066 	ldrb	r1, [sp, #102]	; 0x66
 1002400:	e28dc02c 	add	ip, sp, #44	; 0x2c
 1002404:	e3530000 	cmp	r3, #0
 1002408:	e59de05c 	ldr	lr, [sp, #92]	; 0x5c
 100240c:	c241221e 	subgt	r2, r1, #-536870911	; 0xe0000001
 1002410:	e28d3090 	add	r3, sp, #144	; 0x90
 1002414:	e3a00000 	mov	r0, #0
 1002418:	c0833182 	addgt	r3, r3, r2, lsl #3
 100241c:	e1a0200c 	mov	r2, ip
 1002420:	e150000e 	cmp	r0, lr
 1002424:	e0834180 	add	r4, r3, r0, lsl #3
 1002428:	ba00000e 	blt	1002468 <_vfprintf_internal+0x19c>
 100242c:	e59d3060 	ldr	r3, [sp, #96]	; 0x60
 1002430:	e3530000 	cmp	r3, #0
 1002434:	1a00000e 	bne	1002474 <_vfprintf_internal+0x1a8>
 1002438:	e59d002c 	ldr	r0, [sp, #44]	; 0x2c
 100243c:	e1a03fc8 	asr	r3, r8, #31
 1002440:	e59d1050 	ldr	r1, [sp, #80]	; 0x50
 1002444:	e1a02008 	mov	r2, r8
 1002448:	e5900000 	ldr	r0, [r0]
 100244c:	e2011c0f 	and	r1, r1, #3840	; 0xf00
 1002450:	eb001364 	bl	10071e8 <_store_inttype>
 1002454:	e59d4040 	ldr	r4, [sp, #64]	; 0x40
 1002458:	e1a00004 	mov	r0, r4
 100245c:	eaffffc7 	b	1002380 <_vfprintf_internal+0xb4>
 1002460:	e2844001 	add	r4, r4, #1
 1002464:	eaffffc5 	b	1002380 <_vfprintf_internal+0xb4>
 1002468:	e2800001 	add	r0, r0, #1
 100246c:	e48c4004 	str	r4, [ip], #4
 1002470:	eaffffea 	b	1002420 <_vfprintf_internal+0x154>
 1002474:	e3530007 	cmp	r3, #7
 1002478:	8a0000a1 	bhi	1002704 <_vfprintf_internal+0x438>
 100247c:	e59f250c 	ldr	r2, [pc, #1292]	; 1002990 <_vfprintf_internal+0x6c4>
 1002480:	e08f2002 	add	r2, pc, r2
 1002484:	e0822003 	add	r2, r2, r3
 1002488:	e5526001 	ldrb	r6, [r2, #-1]
 100248c:	e356000a 	cmp	r6, #10
 1002490:	13a05057 	movne	r5, #87	; 0x57
 1002494:	1a000005 	bne	10024b0 <_vfprintf_internal+0x1e4>
 1002498:	e59d2050 	ldr	r2, [sp, #80]	; 0x50
 100249c:	e3120020 	tst	r2, #32
 10024a0:	13a0502c 	movne	r5, #44	; 0x2c
 10024a4:	03a05057 	moveq	r5, #87	; 0x57
 10024a8:	e3120040 	tst	r2, #64	; 0x40
 10024ac:	13855080 	orrne	r5, r5, #128	; 0x80
 10024b0:	e3530005 	cmp	r3, #5
 10024b4:	82666000 	rsbhi	r6, r6, #0
 10024b8:	83a0700b 	movhi	r7, #11
 10024bc:	8a000006 	bhi	10024dc <_vfprintf_internal+0x210>
 10024c0:	e3530003 	cmp	r3, #3
 10024c4:	03a0700b 	moveq	r7, #11
 10024c8:	03a05037 	moveq	r5, #55	; 0x37
 10024cc:	0a000002 	beq	10024dc <_vfprintf_internal+0x210>
 10024d0:	e3530001 	cmp	r3, #1
 10024d4:	13a0700b 	movne	r7, #11
 10024d8:	03a07006 	moveq	r7, #6
 10024dc:	e59d2044 	ldr	r2, [sp, #68]	; 0x44
 10024e0:	e28d4f56 	add	r4, sp, #344	; 0x158
 10024e4:	e2844003 	add	r4, r4, #3
 10024e8:	e3520000 	cmp	r2, #0
 10024ec:	e1a02006 	mov	r2, r6
 10024f0:	b5dda054 	ldrblt	sl, [sp, #84]	; 0x54
 10024f4:	a3a0a020 	movge	sl, #32
 10024f8:	e3530001 	cmp	r3, #1
 10024fc:	128d3e16 	addne	r3, sp, #352	; 0x160
 1002500:	10831101 	addne	r1, r3, r1, lsl #2
 1002504:	03a00b01 	moveq	r0, #1024	; 0x400
 1002508:	151100fc 	ldrne	r0, [r1, #-252]	; 0xffffff04
 100250c:	e59d102c 	ldr	r1, [sp, #44]	; 0x2c
 1002510:	12000c0f 	andne	r0, r0, #3840	; 0xf00
 1002514:	eb001318 	bl	100717c <_load_inttype>
 1002518:	e58d6000 	str	r6, [sp]
 100251c:	e58d5004 	str	r5, [sp, #4]
 1002520:	e1a02000 	mov	r2, r0
 1002524:	e1a03001 	mov	r3, r1
 1002528:	e1a00004 	mov	r0, r4
 100252c:	eb001339 	bl	1007218 <_uintmaxtostr>
 1002530:	e59d3060 	ldr	r3, [sp, #96]	; 0x60
 1002534:	e3530005 	cmp	r3, #5
 1002538:	e1a06000 	mov	r6, r0
 100253c:	9a000007 	bls	1002560 <_vfprintf_internal+0x294>
 1002540:	e5d01000 	ldrb	r1, [r0]
 1002544:	e59d2050 	ldr	r2, [sp, #80]	; 0x50
 1002548:	e351002d 	cmp	r1, #45	; 0x2d
 100254c:	1a00005f 	bne	10026d0 <_vfprintf_internal+0x404>
 1002550:	e2806001 	add	r6, r0, #1
 1002554:	e3a07002 	mov	r7, #2
 1002558:	e3822002 	orr	r2, r2, #2
 100255c:	e58d2050 	str	r2, [sp, #80]	; 0x50
 1002560:	e59d5044 	ldr	r5, [sp, #68]	; 0x44
 1002564:	e0444006 	sub	r4, r4, r6
 1002568:	e59d2050 	ldr	r2, [sp, #80]	; 0x50
 100256c:	e3550000 	cmp	r5, #0
 1002570:	b3a05001 	movlt	r5, #1
 1002574:	e3120010 	tst	r2, #16
 1002578:	e5d62000 	ldrb	r2, [r6]
 100257c:	0a00000c 	beq	10025b4 <_vfprintf_internal+0x2e8>
 1002580:	e3530002 	cmp	r3, #2
 1002584:	9a000057 	bls	10026e8 <_vfprintf_internal+0x41c>
 1002588:	e3530003 	cmp	r3, #3
 100258c:	03a07009 	moveq	r7, #9
 1002590:	0a000007 	beq	10025b4 <_vfprintf_internal+0x2e8>
 1002594:	e3530004 	cmp	r3, #4
 1002598:	1a000005 	bne	10025b4 <_vfprintf_internal+0x2e8>
 100259c:	e1540005 	cmp	r4, r5
 10025a0:	3a000003 	bcc	10025b4 <_vfprintf_internal+0x2e8>
 10025a4:	e3520030 	cmp	r2, #48	; 0x30
 10025a8:	12845001 	addne	r5, r4, #1
 10025ac:	03a05001 	moveq	r5, #1
 10025b0:	0a000001 	beq	10025bc <_vfprintf_internal+0x2f0>
 10025b4:	e3520030 	cmp	r2, #48	; 0x30
 10025b8:	1a000006 	bne	10025d8 <_vfprintf_internal+0x30c>
 10025bc:	e3570006 	cmp	r7, #6
 10025c0:	a3a0700b 	movge	r7, #11
 10025c4:	e3530001 	cmp	r3, #1
 10025c8:	0a000048 	beq	10026f0 <_vfprintf_internal+0x424>
 10025cc:	e3550000 	cmp	r5, #0
 10025d0:	01a04005 	moveq	r4, r5
 10025d4:	0a000048 	beq	10026fc <_vfprintf_internal+0x430>
 10025d8:	e1550004 	cmp	r5, r4
 10025dc:	80455004 	subhi	r5, r5, r4
 10025e0:	9a000045 	bls	10026fc <_vfprintf_internal+0x430>
 10025e4:	e357000b 	cmp	r7, #11
 10025e8:	e0853004 	add	r3, r5, r4
 10025ec:	e58d300c 	str	r3, [sp, #12]
 10025f0:	0a000005 	beq	100260c <_vfprintf_internal+0x340>
 10025f4:	e3570006 	cmp	r7, #6
 10025f8:	e0852004 	add	r2, r5, r4
 10025fc:	b3a03001 	movlt	r3, #1
 1002600:	a3a03002 	movge	r3, #2
 1002604:	e0823003 	add	r3, r2, r3
 1002608:	e58d300c 	str	r3, [sp, #12]
 100260c:	e59d3048 	ldr	r3, [sp, #72]	; 0x48
 1002610:	e59d200c 	ldr	r2, [sp, #12]
 1002614:	e1530002 	cmp	r3, r2
 1002618:	80433002 	subhi	r3, r3, r2
 100261c:	93a03000 	movls	r3, #0
 1002620:	e35a0030 	cmp	sl, #48	; 0x30
 1002624:	e58d3010 	str	r3, [sp, #16]
 1002628:	059d3010 	ldreq	r3, [sp, #16]
 100262c:	03a0a000 	moveq	sl, #0
 1002630:	159da010 	ldrne	sl, [sp, #16]
 1002634:	00855003 	addeq	r5, r5, r3
 1002638:	e59d3050 	ldr	r3, [sp, #80]	; 0x50
 100263c:	e2133008 	ands	r3, r3, #8
 1002640:	e58d301c 	str	r3, [sp, #28]
 1002644:	1a000007 	bne	1002668 <_vfprintf_internal+0x39c>
 1002648:	e1a0200a 	mov	r2, sl
 100264c:	e3a01020 	mov	r1, #32
 1002650:	e1a00009 	mov	r0, r9
 1002654:	ebfffee8 	bl	10021fc <__GI_vsnprintf+0xbc>
 1002658:	e15a0000 	cmp	sl, r0
 100265c:	1affff33 	bne	1002330 <_vfprintf_internal+0x64>
 1002660:	e59d301c 	ldr	r3, [sp, #28]
 1002664:	e1a0a003 	mov	sl, r3
 1002668:	e59d3018 	ldr	r3, [sp, #24]
 100266c:	e1a01009 	mov	r1, r9
 1002670:	e0830007 	add	r0, r3, r7
 1002674:	eb0002f0 	bl	100323c <__GI_fputs_unlocked>
 1002678:	e1a02005 	mov	r2, r5
 100267c:	e3a01030 	mov	r1, #48	; 0x30
 1002680:	e1a00009 	mov	r0, r9
 1002684:	ebfffedc 	bl	10021fc <__GI_vsnprintf+0xbc>
 1002688:	e1550000 	cmp	r5, r0
 100268c:	1affff27 	bne	1002330 <_vfprintf_internal+0x64>
 1002690:	e59d3020 	ldr	r3, [sp, #32]
 1002694:	e3530000 	cmp	r3, #0
 1002698:	1a00009d 	bne	1002914 <_vfprintf_internal+0x648>
 100269c:	e3540000 	cmp	r4, #0
 10026a0:	1a000094 	bne	10028f8 <_vfprintf_internal+0x62c>
 10026a4:	e1a0200a 	mov	r2, sl
 10026a8:	e3a01020 	mov	r1, #32
 10026ac:	e1a00009 	mov	r0, r9
 10026b0:	ebfffed1 	bl	10021fc <__GI_vsnprintf+0xbc>
 10026b4:	e15a0000 	cmp	sl, r0
 10026b8:	1affff1c 	bne	1002330 <_vfprintf_internal+0x64>
 10026bc:	e59d300c 	ldr	r3, [sp, #12]
 10026c0:	e0888003 	add	r8, r8, r3
 10026c4:	e59d3010 	ldr	r3, [sp, #16]
 10026c8:	e0888003 	add	r8, r8, r3
 10026cc:	eaffff60 	b	1002454 <_vfprintf_internal+0x188>
 10026d0:	e3120002 	tst	r2, #2
 10026d4:	13a07000 	movne	r7, #0
 10026d8:	1affffa0 	bne	1002560 <_vfprintf_internal+0x294>
 10026dc:	e3120001 	tst	r2, #1
 10026e0:	13a07004 	movne	r7, #4
 10026e4:	eaffff9d 	b	1002560 <_vfprintf_internal+0x294>
 10026e8:	e3a07006 	mov	r7, #6
 10026ec:	eaffffa8 	b	1002594 <_vfprintf_internal+0x2c8>
 10026f0:	e59f629c 	ldr	r6, [pc, #668]	; 1002994 <_vfprintf_internal+0x6c8>
 10026f4:	e3a04005 	mov	r4, #5
 10026f8:	e08f6006 	add	r6, pc, r6
 10026fc:	e3a05000 	mov	r5, #0
 1002700:	eaffffb7 	b	10025e4 <_vfprintf_internal+0x318>
 1002704:	e353000f 	cmp	r3, #15
 1002708:	8a00000c 	bhi	1002740 <_vfprintf_internal+0x474>
 100270c:	e59f3284 	ldr	r3, [pc, #644]	; 1002998 <_vfprintf_internal+0x6cc>
 1002710:	e1a00009 	mov	r0, r9
 1002714:	e08f3003 	add	r3, pc, r3
 1002718:	e58d3004 	str	r3, [sp, #4]
 100271c:	e28d3044 	add	r3, sp, #68	; 0x44
 1002720:	e58d3000 	str	r3, [sp]
 1002724:	e59d302c 	ldr	r3, [sp, #44]	; 0x2c
 1002728:	e1c320d0 	ldrd	r2, [r3]
 100272c:	eb0012fb 	bl	1007320 <_fpmaxtostr>
 1002730:	e3500000 	cmp	r0, #0
 1002734:	bafffefd 	blt	1002330 <_vfprintf_internal+0x64>
 1002738:	e0888000 	add	r8, r8, r0
 100273c:	eaffff44 	b	1002454 <_vfprintf_internal+0x188>
 1002740:	e3530011 	cmp	r3, #17
 1002744:	8a000021 	bhi	10027d0 <_vfprintf_internal+0x504>
 1002748:	e3a05000 	mov	r5, #0
 100274c:	e59d302c 	ldr	r3, [sp, #44]	; 0x2c
 1002750:	e58d5024 	str	r5, [sp, #36]	; 0x24
 1002754:	1a000011 	bne	10027a0 <_vfprintf_internal+0x4d4>
 1002758:	e5933000 	ldr	r3, [r3]
 100275c:	e1530005 	cmp	r3, r5
 1002760:	e58d3020 	str	r3, [sp, #32]
 1002764:	0a000029 	beq	1002810 <_vfprintf_internal+0x544>
 1002768:	e59d2044 	ldr	r2, [sp, #68]	; 0x44
 100276c:	e28d1020 	add	r1, sp, #32
 1002770:	e59d3014 	ldr	r3, [sp, #20]
 1002774:	e1520005 	cmp	r2, r5
 1002778:	e1a00001 	mov	r0, r1
 100277c:	b3e02000 	mvnlt	r2, #0
 1002780:	eb000f6c 	bl	1006538 <__GI_wcsrtombs>
 1002784:	e3700001 	cmn	r0, #1
 1002788:	e1a04000 	mov	r4, r0
 100278c:	0afffee7 	beq	1002330 <_vfprintf_internal+0x64>
 1002790:	e1a06005 	mov	r6, r5
 1002794:	e3a0a020 	mov	sl, #32
 1002798:	e3a0700b 	mov	r7, #11
 100279c:	eaffff90 	b	10025e4 <_vfprintf_internal+0x318>
 10027a0:	e28d60dc 	add	r6, sp, #220	; 0xdc
 10027a4:	e59d2014 	ldr	r2, [sp, #20]
 10027a8:	e5931000 	ldr	r1, [r3]
 10027ac:	e1a00006 	mov	r0, r6
 10027b0:	eb000f3c 	bl	10064a8 <__GI_wcrtomb>
 10027b4:	e3700001 	cmn	r0, #1
 10027b8:	e1a04000 	mov	r4, r0
 10027bc:	0afffedb 	beq	1002330 <_vfprintf_internal+0x64>
 10027c0:	e28d3e16 	add	r3, sp, #352	; 0x160
 10027c4:	e0833000 	add	r3, r3, r0
 10027c8:	e5435084 	strb	r5, [r3, #-132]	; 0xffffff7c
 10027cc:	eafffff0 	b	1002794 <_vfprintf_internal+0x4c8>
 10027d0:	e3530013 	cmp	r3, #19
 10027d4:	8a000020 	bhi	100285c <_vfprintf_internal+0x590>
 10027d8:	e59d302c 	ldr	r3, [sp, #44]	; 0x2c
 10027dc:	1a000015 	bne	1002838 <_vfprintf_internal+0x56c>
 10027e0:	e5936000 	ldr	r6, [r3]
 10027e4:	e3560000 	cmp	r6, #0
 10027e8:	0a000008 	beq	1002810 <_vfprintf_internal+0x544>
 10027ec:	e59d1044 	ldr	r1, [sp, #68]	; 0x44
 10027f0:	e1a00006 	mov	r0, r6
 10027f4:	e3a0a020 	mov	sl, #32
 10027f8:	e3a0700b 	mov	r7, #11
 10027fc:	e3510000 	cmp	r1, #0
 1002800:	b3e01000 	mvnlt	r1, #0
 1002804:	eb0003d2 	bl	1003754 <__GI_strnlen>
 1002808:	e1a04000 	mov	r4, r0
 100280c:	eaffffba 	b	10026fc <_vfprintf_internal+0x430>
 1002810:	e59d3044 	ldr	r3, [sp, #68]	; 0x44
 1002814:	e3530005 	cmp	r3, #5
 1002818:	8a00002f 	bhi	10028dc <_vfprintf_internal+0x610>
 100281c:	e59f6178 	ldr	r6, [pc, #376]	; 100299c <_vfprintf_internal+0x6d0>
 1002820:	e3a05000 	mov	r5, #0
 1002824:	e3a0a020 	mov	sl, #32
 1002828:	e3a0700b 	mov	r7, #11
 100282c:	e08f6006 	add	r6, pc, r6
 1002830:	e1a04005 	mov	r4, r5
 1002834:	eaffff6a 	b	10025e4 <_vfprintf_internal+0x318>
 1002838:	e5933000 	ldr	r3, [r3]
 100283c:	e3a05000 	mov	r5, #0
 1002840:	e28d60dc 	add	r6, sp, #220	; 0xdc
 1002844:	e3a0a020 	mov	sl, #32
 1002848:	e3a0700b 	mov	r7, #11
 100284c:	e3a04001 	mov	r4, #1
 1002850:	e5cd30dc 	strb	r3, [sp, #220]	; 0xdc
 1002854:	e5cd50dd 	strb	r5, [sp, #221]	; 0xdd
 1002858:	eaffff61 	b	10025e4 <_vfprintf_internal+0x318>
 100285c:	e3530014 	cmp	r3, #20
 1002860:	1a000008 	bne	1002888 <_vfprintf_internal+0x5bc>
 1002864:	e59f3134 	ldr	r3, [pc, #308]	; 10029a0 <_vfprintf_internal+0x6d4>
 1002868:	ee1d0f70 	mrc	15, 0, r0, cr13, cr0, {3}
 100286c:	e28d10dc 	add	r1, sp, #220	; 0xdc
 1002870:	e3a02080 	mov	r2, #128	; 0x80
 1002874:	e79f3003 	ldr	r3, [pc, r3]
 1002878:	e7900003 	ldr	r0, [r0, r3]
 100287c:	eb0003fa 	bl	100386c <__GI___glibc_strerror_r>
 1002880:	e1a06000 	mov	r6, r0
 1002884:	eaffffd8 	b	10027ec <_vfprintf_internal+0x520>
 1002888:	e59f3114 	ldr	r3, [pc, #276]	; 10029a4 <_vfprintf_internal+0x6d8>
 100288c:	e59de04c 	ldr	lr, [sp, #76]	; 0x4c
 1002890:	e79f0003 	ldr	r0, [pc, r3]
 1002894:	e280c00a 	add	ip, r0, #10
 1002898:	e1a03000 	mov	r3, r0
 100289c:	e1a01003 	mov	r1, r3
 10028a0:	e2833001 	add	r3, r3, #1
 10028a4:	e5d14000 	ldrb	r4, [r1]
 10028a8:	e154000e 	cmp	r4, lr
 10028ac:	1a000007 	bne	10028d0 <_vfprintf_internal+0x604>
 10028b0:	e59f30f0 	ldr	r3, [pc, #240]	; 10029a8 <_vfprintf_internal+0x6dc>
 10028b4:	e0411000 	sub	r1, r1, r0
 10028b8:	e1a00009 	mov	r0, r9
 10028bc:	e08f3003 	add	r3, pc, r3
 10028c0:	e7933101 	ldr	r3, [r3, r1, lsl #2]
 10028c4:	e28d1044 	add	r1, sp, #68	; 0x44
 10028c8:	e12fff33 	blx	r3
 10028cc:	eaffff97 	b	1002730 <_vfprintf_internal+0x464>
 10028d0:	e15c0003 	cmp	ip, r3
 10028d4:	1afffff0 	bne	100289c <_vfprintf_internal+0x5d0>
 10028d8:	eafffe94 	b	1002330 <_vfprintf_internal+0x64>
 10028dc:	e59f60c8 	ldr	r6, [pc, #200]	; 10029ac <_vfprintf_internal+0x6e0>
 10028e0:	e3a0a020 	mov	sl, #32
 10028e4:	e3a0700b 	mov	r7, #11
 10028e8:	e3a05000 	mov	r5, #0
 10028ec:	e08f6006 	add	r6, pc, r6
 10028f0:	e3a04006 	mov	r4, #6
 10028f4:	eaffff3a 	b	10025e4 <_vfprintf_internal+0x318>
 10028f8:	e1a02009 	mov	r2, r9
 10028fc:	e1a01004 	mov	r1, r4
 1002900:	e1a00006 	mov	r0, r6
 1002904:	eb001112 	bl	1006d54 <__stdio_fwrite>
 1002908:	e1540000 	cmp	r4, r0
 100290c:	0affff64 	beq	10026a4 <_vfprintf_internal+0x3d8>
 1002910:	eafffe86 	b	1002330 <_vfprintf_internal+0x64>
 1002914:	e28d6020 	add	r6, sp, #32
 1002918:	e28d50dc 	add	r5, sp, #220	; 0xdc
 100291c:	e3a03000 	mov	r3, #0
 1002920:	e58d3024 	str	r3, [sp, #36]	; 0x24
 1002924:	e3540000 	cmp	r4, #0
 1002928:	0affff5d 	beq	10026a4 <_vfprintf_internal+0x3d8>
 100292c:	e3540080 	cmp	r4, #128	; 0x80
 1002930:	e59d3014 	ldr	r3, [sp, #20]
 1002934:	e1a01006 	mov	r1, r6
 1002938:	e1a00005 	mov	r0, r5
 100293c:	31a02004 	movcc	r2, r4
 1002940:	23a02080 	movcs	r2, #128	; 0x80
 1002944:	eb000efb 	bl	1006538 <__GI_wcsrtombs>
 1002948:	e2507000 	subs	r7, r0, #0
 100294c:	1a000001 	bne	1002958 <_vfprintf_internal+0x68c>
 1002950:	e0444007 	sub	r4, r4, r7
 1002954:	eafffff2 	b	1002924 <_vfprintf_internal+0x658>
 1002958:	e1a02009 	mov	r2, r9
 100295c:	e1a01007 	mov	r1, r7
 1002960:	e1a00005 	mov	r0, r5
 1002964:	eb0010fa 	bl	1006d54 <__stdio_fwrite>
 1002968:	e1570000 	cmp	r7, r0
 100296c:	0afffff7 	beq	1002950 <_vfprintf_internal+0x684>
 1002970:	eafffe6e 	b	1002330 <_vfprintf_internal+0x64>
 1002974:	e1a00008 	mov	r0, r8
 1002978:	e28ddf59 	add	sp, sp, #356	; 0x164
 100297c:	e8bd8ff0 	pop	{r4, r5, r6, r7, r8, r9, sl, fp, pc}
 1002980:	0001bd14 	.word	0x0001bd14
 1002984:	00000024 	.word	0x00000024
 1002988:	0001bcbc 	.word	0x0001bcbc
 100298c:	0000a399 	.word	0x0000a399
 1002990:	0000a281 	.word	0x0000a281
 1002994:	00009ffc 	.word	0x00009ffc
 1002998:	fffffb2c 	.word	0xfffffb2c
 100299c:	00009ece 	.word	0x00009ece
 10029a0:	0001b7f0 	.word	0x0001b7f0
 10029a4:	0001b89c 	.word	0x0001b89c
 10029a8:	0001e058 	.word	0x0001e058
 10029ac:	00009e0e 	.word	0x00009e0e

010029b0 <_ppfs_init>:
 10029b0:	e92d4070 	push	{r4, r5, r6, lr}
 10029b4:	e3a02098 	mov	r2, #152	; 0x98
 10029b8:	e1a04000 	mov	r4, r0
 10029bc:	e1a05001 	mov	r5, r1
 10029c0:	e3a01000 	mov	r1, #0
 10029c4:	eb000259 	bl	1003330 <__GI_memset>
 10029c8:	e5943018 	ldr	r3, [r4, #24]
 10029cc:	e284204c 	add	r2, r4, #76	; 0x4c
 10029d0:	e3a01008 	mov	r1, #8
 10029d4:	e2433001 	sub	r3, r3, #1
 10029d8:	e5843018 	str	r3, [r4, #24]
 10029dc:	e1a03004 	mov	r3, r4
 10029e0:	e4835028 	str	r5, [r3], #40	; 0x28
 10029e4:	e4831004 	str	r1, [r3], #4
 10029e8:	e1530002 	cmp	r3, r2
 10029ec:	1afffffc 	bne	10029e4 <_ppfs_init+0x34>
 10029f0:	e1a03005 	mov	r3, r5
 10029f4:	e5d30000 	ldrb	r0, [r3]
 10029f8:	e3500000 	cmp	r0, #0
 10029fc:	1a000001 	bne	1002a08 <_ppfs_init+0x58>
 1002a00:	e5845000 	str	r5, [r4]
 1002a04:	e8bd8070 	pop	{r4, r5, r6, pc}
 1002a08:	e3500025 	cmp	r0, #37	; 0x25
 1002a0c:	1a000009 	bne	1002a38 <_ppfs_init+0x88>
 1002a10:	e5f32001 	ldrb	r2, [r3, #1]!
 1002a14:	e3520025 	cmp	r2, #37	; 0x25
 1002a18:	0a000006 	beq	1002a38 <_ppfs_init+0x88>
 1002a1c:	e1a00004 	mov	r0, r4
 1002a20:	e5843000 	str	r3, [r4]
 1002a24:	eb000077 	bl	1002c08 <_ppfs_parsespec>
 1002a28:	e3500000 	cmp	r0, #0
 1002a2c:	ba000003 	blt	1002a40 <_ppfs_init+0x90>
 1002a30:	e5943000 	ldr	r3, [r4]
 1002a34:	eaffffee 	b	10029f4 <_ppfs_init+0x44>
 1002a38:	e2833001 	add	r3, r3, #1
 1002a3c:	eaffffec 	b	10029f4 <_ppfs_init+0x44>
 1002a40:	e3e00000 	mvn	r0, #0
 1002a44:	e8bd8070 	pop	{r4, r5, r6, pc}

01002a48 <_ppfs_prepargs>:
 1002a48:	e92d4070 	push	{r4, r5, r6, lr}
 1002a4c:	e5905018 	ldr	r5, [r0, #24]
 1002a50:	e580104c 	str	r1, [r0, #76]	; 0x4c
 1002a54:	e3550000 	cmp	r5, #0
 1002a58:	d8bd8070 	pople	{r4, r5, r6, pc}
 1002a5c:	e3a03000 	mov	r3, #0
 1002a60:	e1a04000 	mov	r4, r0
 1002a64:	e580501c 	str	r5, [r0, #28]
 1002a68:	e5803018 	str	r3, [r0, #24]
 1002a6c:	e5803004 	str	r3, [r0, #4]
 1002a70:	e5803008 	str	r3, [r0, #8]
 1002a74:	eb000001 	bl	1002a80 <_ppfs_setargs>
 1002a78:	e5845018 	str	r5, [r4, #24]
 1002a7c:	e8bd8070 	pop	{r4, r5, r6, pc}

01002a80 <_ppfs_setargs>:
 1002a80:	e5901018 	ldr	r1, [r0, #24]
 1002a84:	e2802050 	add	r2, r0, #80	; 0x50
 1002a88:	e5903008 	ldr	r3, [r0, #8]
 1002a8c:	e3510000 	cmp	r1, #0
 1002a90:	e590c004 	ldr	ip, [r0, #4]
 1002a94:	e92d4030 	push	{r4, r5, lr}
 1002a98:	1a00004f 	bne	1002bdc <_ppfs_setargs+0x15c>
 1002a9c:	e3530102 	cmp	r3, #-2147483648	; 0x80000000
 1002aa0:	1a000005 	bne	1002abc <_ppfs_setargs+0x3c>
 1002aa4:	e590304c 	ldr	r3, [r0, #76]	; 0x4c
 1002aa8:	e283e004 	add	lr, r3, #4
 1002aac:	e580e04c 	str	lr, [r0, #76]	; 0x4c
 1002ab0:	e5933000 	ldr	r3, [r3]
 1002ab4:	e5803050 	str	r3, [r0, #80]	; 0x50
 1002ab8:	e5803008 	str	r3, [r0, #8]
 1002abc:	e35c0102 	cmp	ip, #-2147483648	; 0x80000000
 1002ac0:	1a000005 	bne	1002adc <_ppfs_setargs+0x5c>
 1002ac4:	e590304c 	ldr	r3, [r0, #76]	; 0x4c
 1002ac8:	e283c004 	add	ip, r3, #4
 1002acc:	e580c04c 	str	ip, [r0, #76]	; 0x4c
 1002ad0:	e5933000 	ldr	r3, [r3]
 1002ad4:	e5803050 	str	r3, [r0, #80]	; 0x50
 1002ad8:	e5803004 	str	r3, [r0, #4]
 1002adc:	e280c028 	add	ip, r0, #40	; 0x28
 1002ae0:	e300e807 	movw	lr, #2055	; 0x807
 1002ae4:	e590301c 	ldr	r3, [r0, #28]
 1002ae8:	e1530001 	cmp	r3, r1
 1002aec:	ca00000b 	bgt	1002b20 <_ppfs_setargs+0xa0>
 1002af0:	e5903008 	ldr	r3, [r0, #8]
 1002af4:	e3530000 	cmp	r3, #0
 1002af8:	a8bd8030 	popge	{r4, r5, pc}
 1002afc:	e2633000 	rsb	r3, r3, #0
 1002b00:	e5803008 	str	r3, [r0, #8]
 1002b04:	e5903010 	ldr	r3, [r0, #16]
 1002b08:	e3c33001 	bic	r3, r3, #1
 1002b0c:	e3833008 	orr	r3, r3, #8
 1002b10:	e5803010 	str	r3, [r0, #16]
 1002b14:	e3a03020 	mov	r3, #32
 1002b18:	e5803014 	str	r3, [r0, #20]
 1002b1c:	e8bd8030 	pop	{r4, r5, pc}
 1002b20:	e49c4004 	ldr	r4, [ip], #4
 1002b24:	e2811001 	add	r1, r1, #1
 1002b28:	e3540008 	cmp	r4, #8
 1002b2c:	ca00000d 	bgt	1002b68 <_ppfs_setargs+0xe8>
 1002b30:	e3540000 	cmp	r4, #0
 1002b34:	ba00000f 	blt	1002b78 <_ppfs_setargs+0xf8>
 1002b38:	e3540008 	cmp	r4, #8
 1002b3c:	908ff104 	addls	pc, pc, r4, lsl #2
 1002b40:	ea00000c 	b	1002b78 <_ppfs_setargs+0xf8>
 1002b44:	ea00000b 	b	1002b78 <_ppfs_setargs+0xf8>
 1002b48:	ea00000a 	b	1002b78 <_ppfs_setargs+0xf8>
 1002b4c:	ea000009 	b	1002b78 <_ppfs_setargs+0xf8>
 1002b50:	ea000008 	b	1002b78 <_ppfs_setargs+0xf8>
 1002b54:	ea000007 	b	1002b78 <_ppfs_setargs+0xf8>
 1002b58:	ea000006 	b	1002b78 <_ppfs_setargs+0xf8>
 1002b5c:	ea000005 	b	1002b78 <_ppfs_setargs+0xf8>
 1002b60:	ea00001b 	b	1002bd4 <_ppfs_setargs+0x154>
 1002b64:	eaffffde 	b	1002ae4 <_ppfs_setargs+0x64>
 1002b68:	e3540b02 	cmp	r4, #2048	; 0x800
 1002b6c:	e590304c 	ldr	r3, [r0, #76]	; 0x4c
 1002b70:	0a00000f 	beq	1002bb4 <_ppfs_setargs+0x134>
 1002b74:	ca000005 	bgt	1002b90 <_ppfs_setargs+0x110>
 1002b78:	e590304c 	ldr	r3, [r0, #76]	; 0x4c
 1002b7c:	e2834004 	add	r4, r3, #4
 1002b80:	e580404c 	str	r4, [r0, #76]	; 0x4c
 1002b84:	e5933000 	ldr	r3, [r3]
 1002b88:	e5823000 	str	r3, [r2]
 1002b8c:	ea00000e 	b	1002bcc <_ppfs_setargs+0x14c>
 1002b90:	e154000e 	cmp	r4, lr
 1002b94:	1afffff7 	bne	1002b78 <_ppfs_setargs+0xf8>
 1002b98:	e2833007 	add	r3, r3, #7
 1002b9c:	e3c33007 	bic	r3, r3, #7
 1002ba0:	e2834008 	add	r4, r3, #8
 1002ba4:	e580404c 	str	r4, [r0, #76]	; 0x4c
 1002ba8:	e1c340d0 	ldrd	r4, [r3]
 1002bac:	e1c240f0 	strd	r4, [r2]
 1002bb0:	ea000005 	b	1002bcc <_ppfs_setargs+0x14c>
 1002bb4:	e2833007 	add	r3, r3, #7
 1002bb8:	e3c33007 	bic	r3, r3, #7
 1002bbc:	e2834008 	add	r4, r3, #8
 1002bc0:	e580404c 	str	r4, [r0, #76]	; 0x4c
 1002bc4:	e1c340d0 	ldrd	r4, [r3]
 1002bc8:	e1c240f0 	strd	r4, [r2]
 1002bcc:	e2822008 	add	r2, r2, #8
 1002bd0:	eaffffc3 	b	1002ae4 <_ppfs_setargs+0x64>
 1002bd4:	e590304c 	ldr	r3, [r0, #76]	; 0x4c
 1002bd8:	eaffffee 	b	1002b98 <_ppfs_setargs+0x118>
 1002bdc:	e3530102 	cmp	r3, #-2147483648	; 0x80000000
 1002be0:	05d03024 	ldrbeq	r3, [r0, #36]	; 0x24
 1002be4:	0243321e 	subeq	r3, r3, #-536870911	; 0xe0000001
 1002be8:	07923183 	ldreq	r3, [r2, r3, lsl #3]
 1002bec:	05803008 	streq	r3, [r0, #8]
 1002bf0:	e35c0102 	cmp	ip, #-2147483648	; 0x80000000
 1002bf4:	05d03025 	ldrbeq	r3, [r0, #37]	; 0x25
 1002bf8:	0243321e 	subeq	r3, r3, #-536870911	; 0xe0000001
 1002bfc:	07923183 	ldreq	r3, [r2, r3, lsl #3]
 1002c00:	05803004 	streq	r3, [r0, #4]
 1002c04:	eaffffb9 	b	1002af0 <_ppfs_setargs+0x70>

01002c08 <_ppfs_parsespec>:
 1002c08:	e59f25e4 	ldr	r2, [pc, #1508]	; 10031f4 <_ppfs_parsespec+0x5ec>
 1002c0c:	e3a01000 	mov	r1, #0
 1002c10:	e59f35e0 	ldr	r3, [pc, #1504]	; 10031f8 <_ppfs_parsespec+0x5f0>
 1002c14:	e08f2002 	add	r2, pc, r2
 1002c18:	e92d4ff0 	push	{r4, r5, r6, r7, r8, r9, sl, fp, lr}
 1002c1c:	e24dd064 	sub	sp, sp, #100	; 0x64
 1002c20:	e7923003 	ldr	r3, [r2, r3]
 1002c24:	e1a05000 	mov	r5, r0
 1002c28:	e5902010 	ldr	r2, [r0, #16]
 1002c2c:	e5933000 	ldr	r3, [r3]
 1002c30:	e58d305c 	str	r3, [sp, #92]	; 0x5c
 1002c34:	e3a03000 	mov	r3, #0
 1002c38:	e5906018 	ldr	r6, [r0, #24]
 1002c3c:	e2122080 	ands	r2, r2, #128	; 0x80
 1002c40:	e3a03008 	mov	r3, #8
 1002c44:	e5904000 	ldr	r4, [r0]
 1002c48:	e58d1014 	str	r1, [sp, #20]
 1002c4c:	e58d1018 	str	r1, [sp, #24]
 1002c50:	e58d3020 	str	r3, [sp, #32]
 1002c54:	e58d3024 	str	r3, [sp, #36]	; 0x24
 1002c58:	1a00002e 	bne	1002d18 <_ppfs_parsespec+0x110>
 1002c5c:	e59f3598 	ldr	r3, [pc, #1432]	; 10031fc <_ppfs_parsespec+0x5f4>
 1002c60:	e3a0c000 	mov	ip, #0
 1002c64:	e59d901c 	ldr	r9, [sp, #28]
 1002c68:	e1a0700c 	mov	r7, ip
 1002c6c:	e08f3003 	add	r3, pc, r3
 1002c70:	e1a0800c 	mov	r8, ip
 1002c74:	e5933000 	ldr	r3, [r3]
 1002c78:	e1a0a003 	mov	sl, r3
 1002c7c:	e5d43000 	ldrb	r3, [r4]
 1002c80:	e353002a 	cmp	r3, #42	; 0x2a
 1002c84:	02673000 	rsbeq	r3, r7, #0
 1002c88:	028d1060 	addeq	r1, sp, #96	; 0x60
 1002c8c:	0284e001 	addeq	lr, r4, #1
 1002c90:	11a0e004 	movne	lr, r4
 1002c94:	00813103 	addeq	r3, r1, r3, lsl #2
 1002c98:	03a01000 	moveq	r1, #0
 1002c9c:	05031040 	streq	r1, [r3, #-64]	; 0xffffffc0
 1002ca0:	e3a03000 	mov	r3, #0
 1002ca4:	e1a0100e 	mov	r1, lr
 1002ca8:	e4de0001 	ldrb	r0, [lr], #1
 1002cac:	e1a0b080 	lsl	fp, r0, #1
 1002cb0:	e19ab0bb 	ldrh	fp, [sl, fp]
 1002cb4:	e31b0008 	tst	fp, #8
 1002cb8:	1a000027 	bne	1002d5c <_ppfs_parsespec+0x154>
 1002cbc:	e554e001 	ldrb	lr, [r4, #-1]
 1002cc0:	e35e0025 	cmp	lr, #37	; 0x25
 1002cc4:	1a000046 	bne	1002de4 <_ppfs_parsespec+0x1dc>
 1002cc8:	e240e024 	sub	lr, r0, #36	; 0x24
 1002ccc:	e3530000 	cmp	r3, #0
 1002cd0:	e16fef1e 	clz	lr, lr
 1002cd4:	e1a0e2ae 	lsr	lr, lr, #5
 1002cd8:	d3a0e000 	movle	lr, #0
 1002cdc:	e35e0000 	cmp	lr, #0
 1002ce0:	0a00003b 	beq	1002dd4 <_ppfs_parsespec+0x1cc>
 1002ce4:	e3560000 	cmp	r6, #0
 1002ce8:	e2814001 	add	r4, r1, #1
 1002cec:	1a000029 	bne	1002d98 <_ppfs_parsespec+0x190>
 1002cf0:	e3e00000 	mvn	r0, #0
 1002cf4:	e59f2504 	ldr	r2, [pc, #1284]	; 1003200 <_ppfs_parsespec+0x5f8>
 1002cf8:	e59f34f8 	ldr	r3, [pc, #1272]	; 10031f8 <_ppfs_parsespec+0x5f0>
 1002cfc:	e08f2002 	add	r2, pc, r2
 1002d00:	e7923003 	ldr	r3, [r2, r3]
 1002d04:	e5932000 	ldr	r2, [r3]
 1002d08:	e59d305c 	ldr	r3, [sp, #92]	; 0x5c
 1002d0c:	e0332002 	eors	r2, r3, r2
 1002d10:	0a000135 	beq	10031ec <_ppfs_parsespec+0x5e4>
 1002d14:	ebfff4b9 	bl	1000000 <__stack_chk_fail>
 1002d18:	e2444008 	sub	r4, r4, #8
 1002d1c:	e28d003c 	add	r0, sp, #60	; 0x3c
 1002d20:	e5b43004 	ldr	r3, [r4, #4]!
 1002d24:	e6ef3073 	uxtb	r3, r3
 1002d28:	e4c03001 	strb	r3, [r0], #1
 1002d2c:	e594c000 	ldr	ip, [r4]
 1002d30:	e153000c 	cmp	r3, ip
 1002d34:	1affffed 	bne	1002cf0 <_ppfs_parsespec+0xe8>
 1002d38:	e2811001 	add	r1, r1, #1
 1002d3c:	e3510020 	cmp	r1, #32
 1002d40:	13530000 	cmpne	r3, #0
 1002d44:	13a03001 	movne	r3, #1
 1002d48:	03a03000 	moveq	r3, #0
 1002d4c:	1afffff3 	bne	1002d20 <_ppfs_parsespec+0x118>
 1002d50:	e28d403d 	add	r4, sp, #61	; 0x3d
 1002d54:	e5cd305b 	strb	r3, [sp, #91]	; 0x5b
 1002d58:	eaffffbf 	b	1002c5c <_ppfs_parsespec+0x54>
 1002d5c:	e59f14a0 	ldr	r1, [pc, #1184]	; 1003204 <_ppfs_parsespec+0x5fc>
 1002d60:	e1530001 	cmp	r3, r1
 1002d64:	ba000007 	blt	1002d88 <_ppfs_parsespec+0x180>
 1002d68:	03a01001 	moveq	r1, #1
 1002d6c:	13a01000 	movne	r1, #0
 1002d70:	e3500037 	cmp	r0, #55	; 0x37
 1002d74:	83a01000 	movhi	r1, #0
 1002d78:	92011001 	andls	r1, r1, #1
 1002d7c:	e3510000 	cmp	r1, #0
 1002d80:	03e03102 	mvneq	r3, #-2147483648	; 0x80000000
 1002d84:	0affffc6 	beq	1002ca4 <_ppfs_parsespec+0x9c>
 1002d88:	e2400030 	sub	r0, r0, #48	; 0x30
 1002d8c:	e3a0100a 	mov	r1, #10
 1002d90:	e0230391 	mla	r3, r1, r3, r0
 1002d94:	eaffffc2 	b	1002ca4 <_ppfs_parsespec+0x9c>
 1002d98:	e1560003 	cmp	r6, r3
 1002d9c:	e1a0c00e 	mov	ip, lr
 1002da0:	e1a09003 	mov	r9, r3
 1002da4:	b1a06003 	movlt	r6, r3
 1002da8:	e1a0e004 	mov	lr, r4
 1002dac:	e59f4454 	ldr	r4, [pc, #1108]	; 1003208 <_ppfs_parsespec+0x600>
 1002db0:	e1a0100e 	mov	r1, lr
 1002db4:	e4deb001 	ldrb	fp, [lr], #1
 1002db8:	e3a00001 	mov	r0, #1
 1002dbc:	e08f4004 	add	r4, pc, r4
 1002dc0:	e4d43001 	ldrb	r3, [r4], #1
 1002dc4:	e153000b 	cmp	r3, fp
 1002dc8:	1a0000d7 	bne	100312c <_ppfs_parsespec+0x524>
 1002dcc:	e1822000 	orr	r2, r2, r0
 1002dd0:	eafffff5 	b	1002dac <_ppfs_parsespec+0x1a4>
 1002dd4:	e3560000 	cmp	r6, #0
 1002dd8:	da0000ca 	ble	1003108 <_ppfs_parsespec+0x500>
 1002ddc:	e350006d 	cmp	r0, #109	; 0x6d
 1002de0:	1affffc2 	bne	1002cf0 <_ppfs_parsespec+0xe8>
 1002de4:	e5d40000 	ldrb	r0, [r4]
 1002de8:	e350002a 	cmp	r0, #42	; 0x2a
 1002dec:	11a04001 	movne	r4, r1
 1002df0:	1a00000f 	bne	1002e34 <_ppfs_parsespec+0x22c>
 1002df4:	e3560000 	cmp	r6, #0
 1002df8:	0a0000d7 	beq	100315c <_ppfs_parsespec+0x554>
 1002dfc:	e1a04001 	mov	r4, r1
 1002e00:	e3530000 	cmp	r3, #0
 1002e04:	e4d40001 	ldrb	r0, [r4], #1
 1002e08:	c3a01000 	movgt	r1, #0
 1002e0c:	d3a01001 	movle	r1, #1
 1002e10:	e3500024 	cmp	r0, #36	; 0x24
 1002e14:	13811001 	orrne	r1, r1, #1
 1002e18:	e3510000 	cmp	r1, #0
 1002e1c:	1affffb3 	bne	1002cf0 <_ppfs_parsespec+0xe8>
 1002e20:	e2671000 	rsb	r1, r7, #0
 1002e24:	e28d0060 	add	r0, sp, #96	; 0x60
 1002e28:	e0801101 	add	r1, r0, r1, lsl #2
 1002e2c:	e501304c 	str	r3, [r1, #-76]	; 0xffffffb4
 1002e30:	e3a03102 	mov	r3, #-2147483648	; 0x80000000
 1002e34:	e3570000 	cmp	r7, #0
 1002e38:	e5d41000 	ldrb	r1, [r4]
 1002e3c:	0a0000ca 	beq	100316c <_ppfs_parsespec+0x564>
 1002e40:	e35c0000 	cmp	ip, #0
 1002e44:	158d901c 	strne	r9, [sp, #28]
 1002e48:	e59f03bc 	ldr	r0, [pc, #956]	; 100320c <_ppfs_parsespec+0x604>
 1002e4c:	e08f0000 	add	r0, pc, r0
 1002e50:	e5d0c000 	ldrb	ip, [r0]
 1002e54:	e15c0001 	cmp	ip, r1
 1002e58:	1a0000ce 	bne	1003198 <_ppfs_parsespec+0x590>
 1002e5c:	e2844001 	add	r4, r4, #1
 1002e60:	e59f13a8 	ldr	r1, [pc, #936]	; 1003210 <_ppfs_parsespec+0x608>
 1002e64:	e08f1001 	add	r1, pc, r1
 1002e68:	e0401001 	sub	r1, r0, r1
 1002e6c:	e3510001 	cmp	r1, #1
 1002e70:	ca000004 	bgt	1002e88 <_ppfs_parsespec+0x280>
 1002e74:	e5d0c000 	ldrb	ip, [r0]
 1002e78:	e5d41000 	ldrb	r1, [r4]
 1002e7c:	e15c0001 	cmp	ip, r1
 1002e80:	02800009 	addeq	r0, r0, #9
 1002e84:	02844001 	addeq	r4, r4, #1
 1002e88:	e5d01009 	ldrb	r1, [r0, #9]
 1002e8c:	e5d40000 	ldrb	r0, [r4]
 1002e90:	e3500000 	cmp	r0, #0
 1002e94:	e1a01401 	lsl	r1, r1, #8
 1002e98:	0affff94 	beq	1002cf0 <_ppfs_parsespec+0xe8>
 1002e9c:	e59fc370 	ldr	ip, [pc, #880]	; 1003214 <_ppfs_parsespec+0x60c>
 1002ea0:	e08fc00c 	add	ip, pc, ip
 1002ea4:	e5dce000 	ldrb	lr, [ip]
 1002ea8:	e15e0000 	cmp	lr, r0
 1002eac:	1a0000bd 	bne	10031a8 <_ppfs_parsespec+0x5a0>
 1002eb0:	e59f0360 	ldr	r0, [pc, #864]	; 1003218 <_ppfs_parsespec+0x610>
 1002eb4:	e08f0000 	add	r0, pc, r0
 1002eb8:	e04c0000 	sub	r0, ip, r0
 1002ebc:	e3500011 	cmp	r0, #17
 1002ec0:	da000001 	ble	1002ecc <_ppfs_parsespec+0x2c4>
 1002ec4:	e3110b01 	tst	r1, #1024	; 0x400
 1002ec8:	12400002 	subne	r0, r0, #2
 1002ecc:	e59fe348 	ldr	lr, [pc, #840]	; 100321c <_ppfs_parsespec+0x614>
 1002ed0:	e5850020 	str	r0, [r5, #32]
 1002ed4:	e08fe00e 	add	lr, pc, lr
 1002ed8:	e28ee02c 	add	lr, lr, #44	; 0x2c
 1002edc:	e1a0700e 	mov	r7, lr
 1002ee0:	e28ee001 	add	lr, lr, #1
 1002ee4:	e5d7c000 	ldrb	ip, [r7]
 1002ee8:	e15c0000 	cmp	ip, r0
 1002eec:	bafffffa 	blt	1002edc <_ppfs_parsespec+0x2d4>
 1002ef0:	e59fc328 	ldr	ip, [pc, #808]	; 1003220 <_ppfs_parsespec+0x618>
 1002ef4:	e08fc00c 	add	ip, pc, ip
 1002ef8:	e28c002c 	add	r0, ip, #44	; 0x2c
 1002efc:	e0477000 	sub	r7, r7, r0
 1002f00:	e08cc087 	add	ip, ip, r7, lsl #1
 1002f04:	e1dc03f6 	ldrsh	r0, [ip, #54]	; 0x36
 1002f08:	e1dcc4f6 	ldrsh	ip, [ip, #70]	; 0x46
 1002f0c:	e1800001 	orr	r0, r0, r1
 1002f10:	e000000c 	and	r0, r0, ip
 1002f14:	e59fc308 	ldr	ip, [pc, #776]	; 1003224 <_ppfs_parsespec+0x61c>
 1002f18:	e58d0028 	str	r0, [sp, #40]	; 0x28
 1002f1c:	e08fc00c 	add	ip, pc, ip
 1002f20:	e5d40000 	ldrb	r0, [r4]
 1002f24:	e3120004 	tst	r2, #4
 1002f28:	e2011c0f 	and	r1, r1, #3840	; 0xf00
 1002f2c:	e3c22004 	bic	r2, r2, #4
 1002f30:	e9850108 	stmib	r5, {r3, r8}
 1002f34:	e1822001 	orr	r2, r2, r1
 1002f38:	13a03030 	movne	r3, #48	; 0x30
 1002f3c:	03a03020 	moveq	r3, #32
 1002f40:	e585000c 	str	r0, [r5, #12]
 1002f44:	e5853014 	str	r3, [r5, #20]
 1002f48:	e3a03001 	mov	r3, #1
 1002f4c:	e5852010 	str	r2, [r5, #16]
 1002f50:	e585301c 	str	r3, [r5, #28]
 1002f54:	e5dc3000 	ldrb	r3, [ip]
 1002f58:	e3530000 	cmp	r3, #0
 1002f5c:	1a00001c 	bne	1002fd4 <_ppfs_parsespec+0x3cc>
 1002f60:	e5d42000 	ldrb	r2, [r4]
 1002f64:	e352006d 	cmp	r2, #109	; 0x6d
 1002f68:	0585301c 	streq	r3, [r5, #28]
 1002f6c:	03a02014 	moveq	r2, #20
 1002f70:	05852020 	streq	r2, [r5, #32]
 1002f74:	0a000016 	beq	1002fd4 <_ppfs_parsespec+0x3cc>
 1002f78:	e3a03015 	mov	r3, #21
 1002f7c:	e5853020 	str	r3, [r5, #32]
 1002f80:	e59f32a0 	ldr	r3, [pc, #672]	; 1003228 <_ppfs_parsespec+0x620>
 1002f84:	e5d4c000 	ldrb	ip, [r4]
 1002f88:	e79f1003 	ldr	r1, [pc, r3]
 1002f8c:	e281000a 	add	r0, r1, #10
 1002f90:	e1a03001 	mov	r3, r1
 1002f94:	e1a02003 	mov	r2, r3
 1002f98:	e2833001 	add	r3, r3, #1
 1002f9c:	e5d2e000 	ldrb	lr, [r2]
 1002fa0:	e15e000c 	cmp	lr, ip
 1002fa4:	1a000083 	bne	10031b8 <_ppfs_parsespec+0x5b0>
 1002fa8:	e59f327c 	ldr	r3, [pc, #636]	; 100322c <_ppfs_parsespec+0x624>
 1002fac:	e0422001 	sub	r2, r2, r1
 1002fb0:	e2850004 	add	r0, r5, #4
 1002fb4:	e3a01005 	mov	r1, #5
 1002fb8:	e08f3003 	add	r3, pc, r3
 1002fbc:	e7933102 	ldr	r3, [r3, r2, lsl #2]
 1002fc0:	e28d2028 	add	r2, sp, #40	; 0x28
 1002fc4:	e12fff33 	blx	r3
 1002fc8:	e3500005 	cmp	r0, #5
 1002fcc:	e585001c 	str	r0, [r5, #28]
 1002fd0:	caffff46 	bgt	1002cf0 <_ppfs_parsespec+0xe8>
 1002fd4:	e3560000 	cmp	r6, #0
 1002fd8:	da00007b 	ble	10031cc <_ppfs_parsespec+0x5c4>
 1002fdc:	e59fc24c 	ldr	ip, [pc, #588]	; 1003230 <_ppfs_parsespec+0x628>
 1002fe0:	e28da014 	add	sl, sp, #20
 1002fe4:	e59f8248 	ldr	r8, [pc, #584]	; 1003234 <_ppfs_parsespec+0x62c>
 1002fe8:	e3a02000 	mov	r2, #0
 1002fec:	e59d301c 	ldr	r3, [sp, #28]
 1002ff0:	e08fc00c 	add	ip, pc, ip
 1002ff4:	e08f8008 	add	r8, pc, r8
 1002ff8:	e28c7014 	add	r7, ip, #20
 1002ffc:	e2433002 	sub	r3, r3, #2
 1003000:	e2889014 	add	r9, r8, #20
 1003004:	e58d3000 	str	r3, [sp]
 1003008:	e2853024 	add	r3, r5, #36	; 0x24
 100300c:	e58d3004 	str	r3, [sp, #4]
 1003010:	e28d3020 	add	r3, sp, #32
 1003014:	e58d3008 	str	r3, [sp, #8]
 1003018:	e59f3218 	ldr	r3, [pc, #536]	; 1003238 <_ppfs_parsespec+0x630>
 100301c:	e08f3003 	add	r3, pc, r3
 1003020:	e58d300c 	str	r3, [sp, #12]
 1003024:	e3520002 	cmp	r2, #2
 1003028:	d79a3102 	ldrle	r3, [sl, r2, lsl #2]
 100302c:	d59d1004 	ldrle	r1, [sp, #4]
 1003030:	c59d3000 	ldrgt	r3, [sp]
 1003034:	d7c13002 	strble	r3, [r1, r2]
 1003038:	c0833002 	addgt	r3, r3, r2
 100303c:	d6ef3073 	uxtble	r3, r3
 1003040:	e1560003 	cmp	r6, r3
 1003044:	aa000002 	bge	1003054 <_ppfs_parsespec+0x44c>
 1003048:	e3530009 	cmp	r3, #9
 100304c:	caffff27 	bgt	1002cf0 <_ppfs_parsespec+0xe8>
 1003050:	e1a06003 	mov	r6, r3
 1003054:	e59d1008 	ldr	r1, [sp, #8]
 1003058:	e7910102 	ldr	r0, [r1, r2, lsl #2]
 100305c:	e3500008 	cmp	r0, #8
 1003060:	0a000018 	beq	10030c8 <_ppfs_parsespec+0x4c0>
 1003064:	e0853103 	add	r3, r5, r3, lsl #2
 1003068:	e593e024 	ldr	lr, [r3, #36]	; 0x24
 100306c:	e15e0000 	cmp	lr, r0
 1003070:	135e0008 	cmpne	lr, #8
 1003074:	0a000012 	beq	10030c4 <_ppfs_parsespec+0x4bc>
 1003078:	e59d100c 	ldr	r1, [sp, #12]
 100307c:	e281102c 	add	r1, r1, #44	; 0x2c
 1003080:	e171b0f2 	ldrsh	fp, [r1, #-2]!
 1003084:	e15b000e 	cmp	fp, lr
 1003088:	11510007 	cmpne	r1, r7
 100308c:	8afffffb 	bhi	1003080 <_ppfs_parsespec+0x478>
 1003090:	e0411007 	sub	r1, r1, r7
 1003094:	e08c10c1 	add	r1, ip, r1, asr #1
 1003098:	e5d1e056 	ldrb	lr, [r1, #86]	; 0x56
 100309c:	e28c102c 	add	r1, ip, #44	; 0x2c
 10030a0:	e171b0f2 	ldrsh	fp, [r1, #-2]!
 10030a4:	e15b0000 	cmp	fp, r0
 10030a8:	11510009 	cmpne	r1, r9
 10030ac:	8afffffb 	bhi	10030a0 <_ppfs_parsespec+0x498>
 10030b0:	e0411009 	sub	r1, r1, r9
 10030b4:	e08810c1 	add	r1, r8, r1, asr #1
 10030b8:	e5d11056 	ldrb	r1, [r1, #86]	; 0x56
 10030bc:	e151000e 	cmp	r1, lr
 10030c0:	3a000000 	bcc	10030c8 <_ppfs_parsespec+0x4c0>
 10030c4:	e5830024 	str	r0, [r3, #36]	; 0x24
 10030c8:	e595301c 	ldr	r3, [r5, #28]
 10030cc:	e2821001 	add	r1, r2, #1
 10030d0:	e1530002 	cmp	r3, r2
 10030d4:	aa00003a 	bge	10031c4 <_ppfs_parsespec+0x5bc>
 10030d8:	e5953010 	ldr	r3, [r5, #16]
 10030dc:	e595001c 	ldr	r0, [r5, #28]
 10030e0:	e3130080 	tst	r3, #128	; 0x80
 10030e4:	e5856018 	str	r6, [r5, #24]
 10030e8:	128d303c 	addne	r3, sp, #60	; 0x3c
 10030ec:	02844001 	addeq	r4, r4, #1
 10030f0:	10444003 	subne	r4, r4, r3
 10030f4:	15953000 	ldrne	r3, [r5]
 10030f8:	e2800002 	add	r0, r0, #2
 10030fc:	10834104 	addne	r4, r3, r4, lsl #2
 1003100:	e5854000 	str	r4, [r5]
 1003104:	eafffefa 	b	1002cf4 <_ppfs_parsespec+0xec>
 1003108:	e1540001 	cmp	r4, r1
 100310c:	2a000004 	bcs	1003124 <_ppfs_parsespec+0x51c>
 1003110:	e5d40000 	ldrb	r0, [r4]
 1003114:	e1a0600e 	mov	r6, lr
 1003118:	e3500030 	cmp	r0, #48	; 0x30
 100311c:	1affff30 	bne	1002de4 <_ppfs_parsespec+0x1dc>
 1003120:	eaffff20 	b	1002da8 <_ppfs_parsespec+0x1a0>
 1003124:	e1a0600e 	mov	r6, lr
 1003128:	eaffff1e 	b	1002da8 <_ppfs_parsespec+0x1a0>
 100312c:	e5d43000 	ldrb	r3, [r4]
 1003130:	e1a00080 	lsl	r0, r0, #1
 1003134:	e3530000 	cmp	r3, #0
 1003138:	1affff20 	bne	1002dc0 <_ppfs_parsespec+0x1b8>
 100313c:	e1a000c2 	asr	r0, r2, #1
 1003140:	e2000005 	and	r0, r0, #5
 1003144:	e1c22000 	bic	r2, r2, r0
 1003148:	e5510001 	ldrb	r0, [r1, #-1]
 100314c:	e3500025 	cmp	r0, #37	; 0x25
 1003150:	0affff23 	beq	1002de4 <_ppfs_parsespec+0x1dc>
 1003154:	e1a04001 	mov	r4, r1
 1003158:	eafffec7 	b	1002c7c <_ppfs_parsespec+0x74>
 100315c:	e2844001 	add	r4, r4, #1
 1003160:	e1510004 	cmp	r1, r4
 1003164:	0affff31 	beq	1002e30 <_ppfs_parsespec+0x228>
 1003168:	eafffee0 	b	1002cf0 <_ppfs_parsespec+0xe8>
 100316c:	e351002e 	cmp	r1, #46	; 0x2e
 1003170:	1a000003 	bne	1003184 <_ppfs_parsespec+0x57c>
 1003174:	e2841001 	add	r1, r4, #1
 1003178:	e1a08003 	mov	r8, r3
 100317c:	e3e07000 	mvn	r7, #0
 1003180:	eafffff3 	b	1003154 <_ppfs_parsespec+0x54c>
 1003184:	e35c0000 	cmp	ip, #0
 1003188:	e1a08003 	mov	r8, r3
 100318c:	158d901c 	strne	r9, [sp, #28]
 1003190:	e3e03000 	mvn	r3, #0
 1003194:	eaffff2b 	b	1002e48 <_ppfs_parsespec+0x240>
 1003198:	e5f0c001 	ldrb	ip, [r0, #1]!
 100319c:	e35c0000 	cmp	ip, #0
 10031a0:	1affff2a 	bne	1002e50 <_ppfs_parsespec+0x248>
 10031a4:	eaffff2d 	b	1002e60 <_ppfs_parsespec+0x258>
 10031a8:	e5fce001 	ldrb	lr, [ip, #1]!
 10031ac:	e35e0000 	cmp	lr, #0
 10031b0:	1affff3b 	bne	1002ea4 <_ppfs_parsespec+0x29c>
 10031b4:	eaffff59 	b	1002f20 <_ppfs_parsespec+0x318>
 10031b8:	e1500003 	cmp	r0, r3
 10031bc:	1affff74 	bne	1002f94 <_ppfs_parsespec+0x38c>
 10031c0:	eafffeca 	b	1002cf0 <_ppfs_parsespec+0xe8>
 10031c4:	e1a02001 	mov	r2, r1
 10031c8:	eaffff95 	b	1003024 <_ppfs_parsespec+0x41c>
 10031cc:	e595201c 	ldr	r2, [r5, #28]
 10031d0:	e3a03001 	mov	r3, #1
 10031d4:	e28d1028 	add	r1, sp, #40	; 0x28
 10031d8:	e2850028 	add	r0, r5, #40	; 0x28
 10031dc:	e5c53026 	strb	r3, [r5, #38]	; 0x26
 10031e0:	e1a02102 	lsl	r2, r2, #2
 10031e4:	eb000049 	bl	1003310 <__GI_memcpy>
 10031e8:	eaffffba 	b	10030d8 <_ppfs_parsespec+0x4d0>
 10031ec:	e28dd064 	add	sp, sp, #100	; 0x64
 10031f0:	e8bd8ff0 	pop	{r4, r5, r6, r7, r8, r9, sl, fp, pc}
 10031f4:	0001b3e4 	.word	0x0001b3e4
 10031f8:	00000024 	.word	0x00000024
 10031fc:	0001b4f8 	.word	0x0001b4f8
 1003200:	0001b2fc 	.word	0x0001b2fc
 1003204:	0ccccccc 	.word	0x0ccccccc
 1003208:	0000996e 	.word	0x0000996e
 100320c:	000098e6 	.word	0x000098e6
 1003210:	000098ce 	.word	0x000098ce
 1003214:	00009875 	.word	0x00009875
 1003218:	00009861 	.word	0x00009861
 100321c:	0000985e 	.word	0x0000985e
 1003220:	0000983e 	.word	0x0000983e
 1003224:	000097f9 	.word	0x000097f9
 1003228:	0001b1a4 	.word	0x0001b1a4
 100322c:	0001d934 	.word	0x0001d934
 1003230:	00009742 	.word	0x00009742
 1003234:	0000973e 	.word	0x0000973e
 1003238:	00009716 	.word	0x00009716

0100323c <__GI_fputs_unlocked>:
 100323c:	e92d4070 	push	{r4, r5, r6, lr}
 1003240:	e1a06001 	mov	r6, r1
 1003244:	e1a05000 	mov	r5, r0
 1003248:	eb000068 	bl	10033f0 <__GI_strlen>
 100324c:	e1a03006 	mov	r3, r6
 1003250:	e3a01001 	mov	r1, #1
 1003254:	e1a04000 	mov	r4, r0
 1003258:	e1a02000 	mov	r2, r0
 100325c:	e1a00005 	mov	r0, r5
 1003260:	eb000002 	bl	1003270 <__GI_fwrite_unlocked>
 1003264:	e1500004 	cmp	r0, r4
 1003268:	13e00000 	mvnne	r0, #0
 100326c:	e8bd8070 	pop	{r4, r5, r6, pc}

01003270 <__GI_fwrite_unlocked>:
 1003270:	e92d41f0 	push	{r4, r5, r6, r7, r8, lr}
 1003274:	e1a04003 	mov	r4, r3
 1003278:	e1d330b0 	ldrh	r3, [r3]
 100327c:	e1a07000 	mov	r7, r0
 1003280:	e1a05001 	mov	r5, r1
 1003284:	e1a06002 	mov	r6, r2
 1003288:	e20330c0 	and	r3, r3, #192	; 0xc0
 100328c:	e35300c0 	cmp	r3, #192	; 0xc0
 1003290:	1a000004 	bne	10032a8 <__GI_fwrite_unlocked+0x38>
 1003294:	e3550000 	cmp	r5, #0
 1003298:	13560000 	cmpne	r6, #0
 100329c:	1a000007 	bne	10032c0 <__GI_fwrite_unlocked+0x50>
 10032a0:	e3a00000 	mov	r0, #0
 10032a4:	e8bd81f0 	pop	{r4, r5, r6, r7, r8, pc}
 10032a8:	e3a01080 	mov	r1, #128	; 0x80
 10032ac:	e1a00004 	mov	r0, r4
 10032b0:	eb000f57 	bl	1007014 <__stdio_trans2w_o>
 10032b4:	e3500000 	cmp	r0, #0
 10032b8:	0afffff5 	beq	1003294 <__GI_fwrite_unlocked+0x24>
 10032bc:	eafffff7 	b	10032a0 <__GI_fwrite_unlocked+0x30>
 10032c0:	e0832695 	umull	r2, r3, r5, r6
 10032c4:	e3530000 	cmp	r3, #0
 10032c8:	1a000006 	bne	10032e8 <__GI_fwrite_unlocked+0x78>
 10032cc:	e0010596 	mul	r1, r6, r5
 10032d0:	e1a02004 	mov	r2, r4
 10032d4:	e1a00007 	mov	r0, r7
 10032d8:	eb000e9d 	bl	1006d54 <__stdio_fwrite>
 10032dc:	e1a01005 	mov	r1, r5
 10032e0:	eb001b78 	bl	100a0c8 <__udivsi3>
 10032e4:	e8bd81f0 	pop	{r4, r5, r6, r7, r8, pc}
 10032e8:	e1d430b0 	ldrh	r3, [r4]
 10032ec:	ee1d2f70 	mrc	15, 0, r2, cr13, cr0, {3}
 10032f0:	e3a01016 	mov	r1, #22
 10032f4:	e3833008 	orr	r3, r3, #8
 10032f8:	e1c430b0 	strh	r3, [r4]
 10032fc:	e59f3008 	ldr	r3, [pc, #8]	; 100330c <__GI_fwrite_unlocked+0x9c>
 1003300:	e79f3003 	ldr	r3, [pc, r3]
 1003304:	e7821003 	str	r1, [r2, r3]
 1003308:	eaffffe4 	b	10032a0 <__GI_fwrite_unlocked+0x30>
 100330c:	0001ad64 	.word	0x0001ad64

01003310 <__GI_memcpy>:
 1003310:	ea0014c2 	b	1008620 <_memcpy>
	...

01003320 <__GI_memmove>:
 1003320:	ea0014be 	b	1008620 <_memcpy>
	...

01003330 <__GI_memset>:
 1003330:	e1a03000 	mov	r3, r0
 1003334:	e3520008 	cmp	r2, #8
 1003338:	3a000016 	bcc	1003398 <__GI_memset+0x68>
 100333c:	e1811401 	orr	r1, r1, r1, lsl #8
 1003340:	e1811801 	orr	r1, r1, r1, lsl #16
 1003344:	e3130003 	tst	r3, #3
 1003348:	14c31001 	strbne	r1, [r3], #1
 100334c:	12422001 	subne	r2, r2, #1
 1003350:	1afffffb 	bne	1003344 <__GI_memset+0x14>
 1003354:	e1a0c001 	mov	ip, r1
 1003358:	e3520008 	cmp	r2, #8
 100335c:	3a00000d 	bcc	1003398 <__GI_memset+0x68>
 1003360:	e8a31002 	stmia	r3!, {r1, ip}
 1003364:	e2422008 	sub	r2, r2, #8
 1003368:	e3520008 	cmp	r2, #8
 100336c:	3a000009 	bcc	1003398 <__GI_memset+0x68>
 1003370:	e8a31002 	stmia	r3!, {r1, ip}
 1003374:	e2422008 	sub	r2, r2, #8
 1003378:	e3520008 	cmp	r2, #8
 100337c:	3a000005 	bcc	1003398 <__GI_memset+0x68>
 1003380:	e8a31002 	stmia	r3!, {r1, ip}
 1003384:	e2422008 	sub	r2, r2, #8
 1003388:	e3520008 	cmp	r2, #8
 100338c:	28a31002 	stmiacs	r3!, {r1, ip}
 1003390:	22422008 	subcs	r2, r2, #8
 1003394:	2affffef 	bcs	1003358 <__GI_memset+0x28>
 1003398:	e1b02002 	movs	r2, r2
 100339c:	01a0f00e 	moveq	pc, lr
 10033a0:	e2622007 	rsb	r2, r2, #7
 10033a4:	e08ff102 	add	pc, pc, r2, lsl #2
 10033a8:	e1a00000 	nop			; (mov r0, r0)
 10033ac:	e4c31001 	strb	r1, [r3], #1
 10033b0:	e4c31001 	strb	r1, [r3], #1
 10033b4:	e4c31001 	strb	r1, [r3], #1
 10033b8:	e4c31001 	strb	r1, [r3], #1
 10033bc:	e4c31001 	strb	r1, [r3], #1
 10033c0:	e4c31001 	strb	r1, [r3], #1
 10033c4:	e4c31001 	strb	r1, [r3], #1
 10033c8:	e1a0f00e 	mov	pc, lr
 10033cc:	00000000 	andeq	r0, r0, r0

010033d0 <__GI_strcmp>:
 10033d0:	e4d02001 	ldrb	r2, [r0], #1
 10033d4:	e4d13001 	ldrb	r3, [r1], #1
 10033d8:	e3520001 	cmp	r2, #1
 10033dc:	21520003 	cmpcs	r2, r3
 10033e0:	0afffffa 	beq	10033d0 <__GI_strcmp>
 10033e4:	e0420003 	sub	r0, r2, r3
 10033e8:	e1a0f00e 	mov	pc, lr
 10033ec:	00000000 	andeq	r0, r0, r0

010033f0 <__GI_strlen>:
 10033f0:	e3c01003 	bic	r1, r0, #3
 10033f4:	e4912004 	ldr	r2, [r1], #4
 10033f8:	e2103003 	ands	r3, r0, #3
 10033fc:	e2630000 	rsb	r0, r3, #0
 1003400:	0a000004 	beq	1003418 <__GI_strlen+0x28>
 1003404:	e38220ff 	orr	r2, r2, #255	; 0xff
 1003408:	e2533001 	subs	r3, r3, #1
 100340c:	c3822cff 	orrgt	r2, r2, #65280	; 0xff00
 1003410:	e2533001 	subs	r3, r3, #1
 1003414:	c38228ff 	orrgt	r2, r2, #16711680	; 0xff0000
 1003418:	e31200ff 	tst	r2, #255	; 0xff
 100341c:	13120cff 	tstne	r2, #65280	; 0xff00
 1003420:	131208ff 	tstne	r2, #16711680	; 0xff0000
 1003424:	131204ff 	tstne	r2, #-16777216	; 0xff000000
 1003428:	12800004 	addne	r0, r0, #4
 100342c:	14912004 	ldrne	r2, [r1], #4
 1003430:	1afffff8 	bne	1003418 <__GI_strlen+0x28>
 1003434:	e31200ff 	tst	r2, #255	; 0xff
 1003438:	12800001 	addne	r0, r0, #1
 100343c:	13120cff 	tstne	r2, #65280	; 0xff00
 1003440:	12800001 	addne	r0, r0, #1
 1003444:	131208ff 	tstne	r2, #16711680	; 0xff0000
 1003448:	12800001 	addne	r0, r0, #1
 100344c:	e1a0f00e 	mov	pc, lr

01003450 <__GI_strchr>:
 1003450:	e6efc071 	uxtb	ip, r1
 1003454:	e1a03000 	mov	r3, r0
 1003458:	e3130003 	tst	r3, #3
 100345c:	e1a00003 	mov	r0, r3
 1003460:	1a00001a 	bne	10034d0 <__GI_strchr+0x80>
 1003464:	e1a01401 	lsl	r1, r1, #8
 1003468:	e92d4070 	push	{r4, r5, r6, lr}
 100346c:	e6ff1071 	uxth	r1, r1
 1003470:	e181100c 	orr	r1, r1, ip
 1003474:	e59fe0c4 	ldr	lr, [pc, #196]	; 1003540 <__GI_strchr+0xf0>
 1003478:	e1811801 	orr	r1, r1, r1, lsl #16
 100347c:	e1a03000 	mov	r3, r0
 1003480:	e4935004 	ldr	r5, [r3], #4
 1003484:	e0216005 	eor	r6, r1, r5
 1003488:	e085200e 	add	r2, r5, lr
 100348c:	e086400e 	add	r4, r6, lr
 1003490:	e0222005 	eor	r2, r2, r5
 1003494:	e0244006 	eor	r4, r4, r6
 1003498:	e0022004 	and	r2, r2, r4
 100349c:	e182200e 	orr	r2, r2, lr
 10034a0:	e3720001 	cmn	r2, #1
 10034a4:	0a000011 	beq	10034f0 <__GI_strchr+0xa0>
 10034a8:	e5532004 	ldrb	r2, [r3, #-4]
 10034ac:	e152000c 	cmp	r2, ip
 10034b0:	08bd8070 	popeq	{r4, r5, r6, pc}
 10034b4:	e3520000 	cmp	r2, #0
 10034b8:	0a00001e 	beq	1003538 <__GI_strchr+0xe8>
 10034bc:	e5532003 	ldrb	r2, [r3, #-3]
 10034c0:	e152000c 	cmp	r2, ip
 10034c4:	1a00000b 	bne	10034f8 <__GI_strchr+0xa8>
 10034c8:	e2800001 	add	r0, r0, #1
 10034cc:	e8bd8070 	pop	{r4, r5, r6, pc}
 10034d0:	e5d32000 	ldrb	r2, [r3]
 10034d4:	e2803001 	add	r3, r0, #1
 10034d8:	e152000c 	cmp	r2, ip
 10034dc:	012fff1e 	bxeq	lr
 10034e0:	e3520000 	cmp	r2, #0
 10034e4:	1affffdb 	bne	1003458 <__GI_strchr+0x8>
 10034e8:	e1a00002 	mov	r0, r2
 10034ec:	e12fff1e 	bx	lr
 10034f0:	e1a00003 	mov	r0, r3
 10034f4:	eaffffe0 	b	100347c <__GI_strchr+0x2c>
 10034f8:	e3520000 	cmp	r2, #0
 10034fc:	0a00000d 	beq	1003538 <__GI_strchr+0xe8>
 1003500:	e5532002 	ldrb	r2, [r3, #-2]
 1003504:	e152000c 	cmp	r2, ip
 1003508:	1a000001 	bne	1003514 <__GI_strchr+0xc4>
 100350c:	e2800002 	add	r0, r0, #2
 1003510:	e8bd8070 	pop	{r4, r5, r6, pc}
 1003514:	e3520000 	cmp	r2, #0
 1003518:	0a000006 	beq	1003538 <__GI_strchr+0xe8>
 100351c:	e5532001 	ldrb	r2, [r3, #-1]
 1003520:	e152000c 	cmp	r2, ip
 1003524:	1a000001 	bne	1003530 <__GI_strchr+0xe0>
 1003528:	e2800003 	add	r0, r0, #3
 100352c:	e8bd8070 	pop	{r4, r5, r6, pc}
 1003530:	e3520000 	cmp	r2, #0
 1003534:	1affffed 	bne	10034f0 <__GI_strchr+0xa0>
 1003538:	e1a00002 	mov	r0, r2
 100353c:	e8bd8070 	pop	{r4, r5, r6, pc}
 1003540:	7efefeff 	.word	0x7efefeff

01003544 <__GI_strcpy>:
 1003544:	e2411001 	sub	r1, r1, #1
 1003548:	e2402001 	sub	r2, r0, #1
 100354c:	e5f13001 	ldrb	r3, [r1, #1]!
 1003550:	e3530000 	cmp	r3, #0
 1003554:	e5e23001 	strb	r3, [r2, #1]!
 1003558:	1afffffb 	bne	100354c <__GI_strcpy+0x8>
 100355c:	e12fff1e 	bx	lr

01003560 <__GI_strncmp>:
 1003560:	e3520003 	cmp	r2, #3
 1003564:	e92d4030 	push	{r4, r5, lr}
 1003568:	9a000038 	bls	1003650 <__GI_strncmp+0xf0>
 100356c:	e3c24003 	bic	r4, r2, #3
 1003570:	e281e004 	add	lr, r1, #4
 1003574:	e0804004 	add	r4, r0, r4
 1003578:	e5d03000 	ldrb	r3, [r0]
 100357c:	e1a0100e 	mov	r1, lr
 1003580:	e55e5004 	ldrb	r5, [lr, #-4]
 1003584:	e053c005 	subs	ip, r3, r5
 1003588:	13a0c001 	movne	ip, #1
 100358c:	e3530000 	cmp	r3, #0
 1003590:	03a0c001 	moveq	ip, #1
 1003594:	e35c0000 	cmp	ip, #0
 1003598:	0a000001 	beq	10035a4 <__GI_strncmp+0x44>
 100359c:	e0430005 	sub	r0, r3, r5
 10035a0:	e8bd8030 	pop	{r4, r5, pc}
 10035a4:	e5d03001 	ldrb	r3, [r0, #1]
 10035a8:	e55e5003 	ldrb	r5, [lr, #-3]
 10035ac:	e053c005 	subs	ip, r3, r5
 10035b0:	13a0c001 	movne	ip, #1
 10035b4:	e3530000 	cmp	r3, #0
 10035b8:	03a0c001 	moveq	ip, #1
 10035bc:	e35c0000 	cmp	ip, #0
 10035c0:	1afffff5 	bne	100359c <__GI_strncmp+0x3c>
 10035c4:	e5d03002 	ldrb	r3, [r0, #2]
 10035c8:	e55e5002 	ldrb	r5, [lr, #-2]
 10035cc:	e053c005 	subs	ip, r3, r5
 10035d0:	13a0c001 	movne	ip, #1
 10035d4:	e3530000 	cmp	r3, #0
 10035d8:	03a0c001 	moveq	ip, #1
 10035dc:	e35c0000 	cmp	ip, #0
 10035e0:	1affffed 	bne	100359c <__GI_strncmp+0x3c>
 10035e4:	e5d03003 	ldrb	r3, [r0, #3]
 10035e8:	e2800004 	add	r0, r0, #4
 10035ec:	e55ec001 	ldrb	ip, [lr, #-1]
 10035f0:	e053e00c 	subs	lr, r3, ip
 10035f4:	13a0e001 	movne	lr, #1
 10035f8:	e3530000 	cmp	r3, #0
 10035fc:	03a0e001 	moveq	lr, #1
 1003600:	e35e0000 	cmp	lr, #0
 1003604:	0a000001 	beq	1003610 <__GI_strncmp+0xb0>
 1003608:	e043000c 	sub	r0, r3, ip
 100360c:	e8bd8030 	pop	{r4, r5, pc}
 1003610:	e1500004 	cmp	r0, r4
 1003614:	e281e004 	add	lr, r1, #4
 1003618:	1affffd6 	bne	1003578 <__GI_strncmp+0x18>
 100361c:	e2022003 	and	r2, r2, #3
 1003620:	e0802002 	add	r2, r0, r2
 1003624:	e1500002 	cmp	r0, r2
 1003628:	0afffff6 	beq	1003608 <__GI_strncmp+0xa8>
 100362c:	e4d03001 	ldrb	r3, [r0], #1
 1003630:	e4d1c001 	ldrb	ip, [r1], #1
 1003634:	e053e00c 	subs	lr, r3, ip
 1003638:	13a0e001 	movne	lr, #1
 100363c:	e3530000 	cmp	r3, #0
 1003640:	03a0e001 	moveq	lr, #1
 1003644:	e35e0000 	cmp	lr, #0
 1003648:	0afffff5 	beq	1003624 <__GI_strncmp+0xc4>
 100364c:	eaffffed 	b	1003608 <__GI_strncmp+0xa8>
 1003650:	e3a0c000 	mov	ip, #0
 1003654:	e1a0300c 	mov	r3, ip
 1003658:	eafffff0 	b	1003620 <__GI_strncmp+0xc0>

0100365c <__GI_strncpy>:
 100365c:	e3520003 	cmp	r2, #3
 1003660:	e2403001 	sub	r3, r0, #1
 1003664:	9a00002c 	bls	100371c <__GI_strncpy+0xc0>
 1003668:	e3c2c003 	bic	ip, r2, #3
 100366c:	e081c00c 	add	ip, r1, ip
 1003670:	e52de004 	push	{lr}		; (str lr, [sp, #-4]!)
 1003674:	e5d1e000 	ldrb	lr, [r1]
 1003678:	e35e0000 	cmp	lr, #0
 100367c:	e5c3e001 	strb	lr, [r3, #1]
 1003680:	0a000023 	beq	1003714 <__GI_strncpy+0xb8>
 1003684:	e5d1e001 	ldrb	lr, [r1, #1]
 1003688:	e35e0000 	cmp	lr, #0
 100368c:	e5c3e002 	strb	lr, [r3, #2]
 1003690:	1a00000a 	bne	10036c0 <__GI_strncpy+0x64>
 1003694:	e2833002 	add	r3, r3, #2
 1003698:	e2422001 	sub	r2, r2, #1
 100369c:	e0431000 	sub	r1, r3, r0
 10036a0:	e0522001 	subs	r2, r2, r1
 10036a4:	049df004 	popeq	{pc}		; (ldreq pc, [sp], #4)
 10036a8:	e0832002 	add	r2, r3, r2
 10036ac:	e3a01000 	mov	r1, #0
 10036b0:	e5e31001 	strb	r1, [r3, #1]!
 10036b4:	e1530002 	cmp	r3, r2
 10036b8:	1afffffc 	bne	10036b0 <__GI_strncpy+0x54>
 10036bc:	e49df004 	pop	{pc}		; (ldr pc, [sp], #4)
 10036c0:	e5d1e002 	ldrb	lr, [r1, #2]
 10036c4:	e35e0000 	cmp	lr, #0
 10036c8:	e5c3e003 	strb	lr, [r3, #3]
 10036cc:	02833003 	addeq	r3, r3, #3
 10036d0:	0afffff0 	beq	1003698 <__GI_strncpy+0x3c>
 10036d4:	e5d1e003 	ldrb	lr, [r1, #3]
 10036d8:	e2811004 	add	r1, r1, #4
 10036dc:	e35e0000 	cmp	lr, #0
 10036e0:	e5e3e004 	strb	lr, [r3, #4]!
 10036e4:	0affffeb 	beq	1003698 <__GI_strncpy+0x3c>
 10036e8:	e151000c 	cmp	r1, ip
 10036ec:	1affffe0 	bne	1003674 <__GI_strncpy+0x18>
 10036f0:	e2122003 	ands	r2, r2, #3
 10036f4:	049df004 	popeq	{pc}		; (ldreq pc, [sp], #4)
 10036f8:	e4d1c001 	ldrb	ip, [r1], #1
 10036fc:	e2522001 	subs	r2, r2, #1
 1003700:	e5e3c001 	strb	ip, [r3, #1]!
 1003704:	049df004 	popeq	{pc}		; (ldreq pc, [sp], #4)
 1003708:	e35c0000 	cmp	ip, #0
 100370c:	1afffff9 	bne	10036f8 <__GI_strncpy+0x9c>
 1003710:	eaffffe4 	b	10036a8 <__GI_strncpy+0x4c>
 1003714:	e2833001 	add	r3, r3, #1
 1003718:	eaffffde 	b	1003698 <__GI_strncpy+0x3c>
 100371c:	e2122003 	ands	r2, r2, #3
 1003720:	012fff1e 	bxeq	lr
 1003724:	e4d1c001 	ldrb	ip, [r1], #1
 1003728:	e2522001 	subs	r2, r2, #1
 100372c:	e5e3c001 	strb	ip, [r3, #1]!
 1003730:	012fff1e 	bxeq	lr
 1003734:	e35c0000 	cmp	ip, #0
 1003738:	1afffff9 	bne	1003724 <__GI_strncpy+0xc8>
 100373c:	e0832002 	add	r2, r3, r2
 1003740:	e3a01000 	mov	r1, #0
 1003744:	e5e31001 	strb	r1, [r3, #1]!
 1003748:	e1530002 	cmp	r3, r2
 100374c:	1afffffc 	bne	1003744 <__GI_strncpy+0xe8>
 1003750:	e12fff1e 	bx	lr

01003754 <__GI_strnlen>:
 1003754:	e1a02000 	mov	r2, r0
 1003758:	e2510000 	subs	r0, r1, #0
 100375c:	012fff1e 	bxeq	lr
 1003760:	e0921000 	adds	r1, r2, r0
 1003764:	e1a00002 	mov	r0, r2
 1003768:	23e01000 	mvncs	r1, #0
 100376c:	e3100003 	tst	r0, #3
 1003770:	e1a03000 	mov	r3, r0
 1003774:	1a000014 	bne	10037cc <__GI_strnlen+0x78>
 1003778:	e92d4010 	push	{r4, lr}
 100377c:	e59fe09c 	ldr	lr, [pc, #156]	; 1003820 <__GI_strnlen+0xcc>
 1003780:	e59f409c 	ldr	r4, [pc, #156]	; 1003824 <__GI_strnlen+0xd0>
 1003784:	e1500001 	cmp	r0, r1
 1003788:	2a00000b 	bcs	10037bc <__GI_strnlen+0x68>
 100378c:	e1a0c000 	mov	ip, r0
 1003790:	e49c3004 	ldr	r3, [ip], #4
 1003794:	e08e3003 	add	r3, lr, r3
 1003798:	e1130004 	tst	r3, r4
 100379c:	0a00001a 	beq	100380c <__GI_strnlen+0xb8>
 10037a0:	e55c3004 	ldrb	r3, [ip, #-4]
 10037a4:	e3530000 	cmp	r3, #0
 10037a8:	0a00001a 	beq	1003818 <__GI_strnlen+0xc4>
 10037ac:	e55c3003 	ldrb	r3, [ip, #-3]
 10037b0:	e3530000 	cmp	r3, #0
 10037b4:	1a00000c 	bne	10037ec <__GI_strnlen+0x98>
 10037b8:	e2803001 	add	r3, r0, #1
 10037bc:	e1510003 	cmp	r1, r3
 10037c0:	90620001 	rsbls	r0, r2, r1
 10037c4:	80620003 	rsbhi	r0, r2, r3
 10037c8:	e8bd8010 	pop	{r4, pc}
 10037cc:	e5d3c000 	ldrb	ip, [r3]
 10037d0:	e2800001 	add	r0, r0, #1
 10037d4:	e35c0000 	cmp	ip, #0
 10037d8:	1affffe3 	bne	100376c <__GI_strnlen+0x18>
 10037dc:	e1510003 	cmp	r1, r3
 10037e0:	90620001 	rsbls	r0, r2, r1
 10037e4:	80620003 	rsbhi	r0, r2, r3
 10037e8:	e12fff1e 	bx	lr
 10037ec:	e55c3002 	ldrb	r3, [ip, #-2]
 10037f0:	e3530000 	cmp	r3, #0
 10037f4:	02803002 	addeq	r3, r0, #2
 10037f8:	0affffef 	beq	10037bc <__GI_strnlen+0x68>
 10037fc:	e55c3001 	ldrb	r3, [ip, #-1]
 1003800:	e3530000 	cmp	r3, #0
 1003804:	02803003 	addeq	r3, r0, #3
 1003808:	0affffeb 	beq	10037bc <__GI_strnlen+0x68>
 100380c:	e1a03001 	mov	r3, r1
 1003810:	e1a0000c 	mov	r0, ip
 1003814:	eaffffda 	b	1003784 <__GI_strnlen+0x30>
 1003818:	e1a03000 	mov	r3, r0
 100381c:	eaffffe6 	b	10037bc <__GI_strnlen+0x68>
 1003820:	fefefeff 	.word	0xfefefeff
 1003824:	80808080 	.word	0x80808080

01003828 <__GI_strrchr>:
 1003828:	e92d4070 	push	{r4, r5, r6, lr}
 100382c:	e21140ff 	ands	r4, r1, #255	; 0xff
 1003830:	11a03000 	movne	r3, r0
 1003834:	13a05000 	movne	r5, #0
 1003838:	1a000004 	bne	1003850 <__GI_strrchr+0x28>
 100383c:	e1a01004 	mov	r1, r4
 1003840:	e8bd4070 	pop	{r4, r5, r6, lr}
 1003844:	eaffff01 	b	1003450 <__GI_strchr>
 1003848:	e2803001 	add	r3, r0, #1
 100384c:	e1a05000 	mov	r5, r0
 1003850:	e1a01004 	mov	r1, r4
 1003854:	e1a00003 	mov	r0, r3
 1003858:	ebfffefc 	bl	1003450 <__GI_strchr>
 100385c:	e3500000 	cmp	r0, #0
 1003860:	1afffff8 	bne	1003848 <__GI_strrchr+0x20>
 1003864:	e1a00005 	mov	r0, r5
 1003868:	e8bd8070 	pop	{r4, r5, r6, pc}

0100386c <__GI___glibc_strerror_r>:
 100386c:	e92d4010 	push	{r4, lr}
 1003870:	e1a04001 	mov	r4, r1
 1003874:	eb000001 	bl	1003880 <__GI___xpg_strerror_r>
 1003878:	e1a00004 	mov	r0, r4
 100387c:	e8bd8010 	pop	{r4, pc}

01003880 <__GI___xpg_strerror_r>:
 1003880:	e92d40f0 	push	{r4, r5, r6, r7, lr}
 1003884:	e1a04002 	mov	r4, r2
 1003888:	e59f2128 	ldr	r2, [pc, #296]	; 10039b8 <__GI___xpg_strerror_r+0x138>
 100388c:	e350007c 	cmp	r0, #124	; 0x7c
 1003890:	e59f3124 	ldr	r3, [pc, #292]	; 10039bc <__GI___xpg_strerror_r+0x13c>
 1003894:	e24dd044 	sub	sp, sp, #68	; 0x44
 1003898:	e08f2002 	add	r2, pc, r2
 100389c:	e1a07001 	mov	r7, r1
 10038a0:	e7923003 	ldr	r3, [r2, r3]
 10038a4:	e5933000 	ldr	r3, [r3]
 10038a8:	e58d303c 	str	r3, [sp, #60]	; 0x3c
 10038ac:	e3a03000 	mov	r3, #0
 10038b0:	8a000009 	bhi	10038dc <__GI___xpg_strerror_r+0x5c>
 10038b4:	e59f2104 	ldr	r2, [pc, #260]	; 10039c0 <__GI___xpg_strerror_r+0x140>
 10038b8:	e1a05000 	mov	r5, r0
 10038bc:	e08f2002 	add	r2, pc, r2
 10038c0:	e3550000 	cmp	r5, #0
 10038c4:	e5d23000 	ldrb	r3, [r2]
 10038c8:	e1a06002 	mov	r6, r2
 10038cc:	e2822001 	add	r2, r2, #1
 10038d0:	1a00001e 	bne	1003950 <__GI___xpg_strerror_r+0xd0>
 10038d4:	e3530000 	cmp	r3, #0
 10038d8:	1a00000d 	bne	1003914 <__GI___xpg_strerror_r+0x94>
 10038dc:	e3e02009 	mvn	r2, #9
 10038e0:	e3a03000 	mov	r3, #0
 10038e4:	e1cd20f0 	strd	r2, [sp]
 10038e8:	e1a03fc0 	asr	r3, r0, #31
 10038ec:	e1a02000 	mov	r2, r0
 10038f0:	e28d0039 	add	r0, sp, #57	; 0x39
 10038f4:	eb000e47 	bl	1007218 <_uintmaxtostr>
 10038f8:	e59f10c4 	ldr	r1, [pc, #196]	; 10039c4 <__GI___xpg_strerror_r+0x144>
 10038fc:	e3a0200e 	mov	r2, #14
 1003900:	e3a05016 	mov	r5, #22
 1003904:	e08f1001 	add	r1, pc, r1
 1003908:	e240600e 	sub	r6, r0, #14
 100390c:	e1a00006 	mov	r0, r6
 1003910:	ebfffe7e 	bl	1003310 <__GI_memcpy>
 1003914:	e3570000 	cmp	r7, #0
 1003918:	e1a00006 	mov	r0, r6
 100391c:	03a04000 	moveq	r4, #0
 1003920:	ebfffeb2 	bl	10033f0 <__GI_strlen>
 1003924:	e2800001 	add	r0, r0, #1
 1003928:	e1500004 	cmp	r0, r4
 100392c:	9a00000a 	bls	100395c <__GI___xpg_strerror_r+0xdc>
 1003930:	e3540000 	cmp	r4, #0
 1003934:	e3a05022 	mov	r5, #34	; 0x22
 1003938:	1a000009 	bne	1003964 <__GI___xpg_strerror_r+0xe4>
 100393c:	e59f3084 	ldr	r3, [pc, #132]	; 10039c8 <__GI___xpg_strerror_r+0x148>
 1003940:	ee1d2f70 	mrc	15, 0, r2, cr13, cr0, {3}
 1003944:	e79f3003 	ldr	r3, [pc, r3]
 1003948:	e7825003 	str	r5, [r2, r3]
 100394c:	ea00000d 	b	1003988 <__GI___xpg_strerror_r+0x108>
 1003950:	e3530000 	cmp	r3, #0
 1003954:	02455001 	subeq	r5, r5, #1
 1003958:	eaffffd8 	b	10038c0 <__GI___xpg_strerror_r+0x40>
 100395c:	e2504000 	subs	r4, r0, #0
 1003960:	0a000006 	beq	1003980 <__GI___xpg_strerror_r+0x100>
 1003964:	e1a02004 	mov	r2, r4
 1003968:	e0874004 	add	r4, r7, r4
 100396c:	e1a01006 	mov	r1, r6
 1003970:	e1a00007 	mov	r0, r7
 1003974:	ebfffe65 	bl	1003310 <__GI_memcpy>
 1003978:	e3a03000 	mov	r3, #0
 100397c:	e5443001 	strb	r3, [r4, #-1]
 1003980:	e3550000 	cmp	r5, #0
 1003984:	1affffec 	bne	100393c <__GI___xpg_strerror_r+0xbc>
 1003988:	e59f203c 	ldr	r2, [pc, #60]	; 10039cc <__GI___xpg_strerror_r+0x14c>
 100398c:	e59f3028 	ldr	r3, [pc, #40]	; 10039bc <__GI___xpg_strerror_r+0x13c>
 1003990:	e08f2002 	add	r2, pc, r2
 1003994:	e7923003 	ldr	r3, [r2, r3]
 1003998:	e5932000 	ldr	r2, [r3]
 100399c:	e59d303c 	ldr	r3, [sp, #60]	; 0x3c
 10039a0:	e0332002 	eors	r2, r3, r2
 10039a4:	0a000000 	beq	10039ac <__GI___xpg_strerror_r+0x12c>
 10039a8:	ebfff194 	bl	1000000 <__stack_chk_fail>
 10039ac:	e1a00005 	mov	r0, r5
 10039b0:	e28dd044 	add	sp, sp, #68	; 0x44
 10039b4:	e8bd80f0 	pop	{r4, r5, r6, r7, pc}
 10039b8:	0001a760 	.word	0x0001a760
 10039bc:	00000024 	.word	0x00000024
 10039c0:	00008ee7 	.word	0x00008ee7
 10039c4:	00008e90 	.word	0x00008e90
 10039c8:	0001a720 	.word	0x0001a720
 10039cc:	0001a668 	.word	0x0001a668

010039d0 <__libc_connect>:
 10039d0:	e59f309c 	ldr	r3, [pc, #156]	; 1003a74 <__libc_connect+0xa4>
 10039d4:	e92d41f0 	push	{r4, r5, r6, r7, r8, lr}
 10039d8:	e08f3003 	add	r3, pc, r3
 10039dc:	e5933000 	ldr	r3, [r3]
 10039e0:	e3530000 	cmp	r3, #0
 10039e4:	1a00000c 	bne	1003a1c <__libc_connect+0x4c>
 10039e8:	e300711b 	movw	r7, #283	; 0x11b
 10039ec:	ef000000 	svc	0x00000000
 10039f0:	e3700a01 	cmn	r0, #4096	; 0x1000
 10039f4:	9a000005 	bls	1003a10 <__libc_connect+0x40>
 10039f8:	e59f3078 	ldr	r3, [pc, #120]	; 1003a78 <__libc_connect+0xa8>
 10039fc:	ee1d2f70 	mrc	15, 0, r2, cr13, cr0, {3}
 1003a00:	e2600000 	rsb	r0, r0, #0
 1003a04:	e79f3003 	ldr	r3, [pc, r3]
 1003a08:	e7820003 	str	r0, [r2, r3]
 1003a0c:	e3e00000 	mvn	r0, #0
 1003a10:	e1a04000 	mov	r4, r0
 1003a14:	e1a00004 	mov	r0, r4
 1003a18:	e8bd81f0 	pop	{r4, r5, r6, r7, r8, pc}
 1003a1c:	e1a06000 	mov	r6, r0
 1003a20:	e1a05001 	mov	r5, r1
 1003a24:	e1a04002 	mov	r4, r2
 1003a28:	eb00064d 	bl	1005364 <__libc_enable_asynccancel>
 1003a2c:	e300711b 	movw	r7, #283	; 0x11b
 1003a30:	e1a01005 	mov	r1, r5
 1003a34:	e1a02004 	mov	r2, r4
 1003a38:	e1a0c000 	mov	ip, r0
 1003a3c:	e1a00006 	mov	r0, r6
 1003a40:	ef000000 	svc	0x00000000
 1003a44:	e3700a01 	cmn	r0, #4096	; 0x1000
 1003a48:	9a000005 	bls	1003a64 <__libc_connect+0x94>
 1003a4c:	e59f2028 	ldr	r2, [pc, #40]	; 1003a7c <__libc_connect+0xac>
 1003a50:	e2603000 	rsb	r3, r0, #0
 1003a54:	ee1d1f70 	mrc	15, 0, r1, cr13, cr0, {3}
 1003a58:	e3e00000 	mvn	r0, #0
 1003a5c:	e79f2002 	ldr	r2, [pc, r2]
 1003a60:	e7813002 	str	r3, [r1, r2]
 1003a64:	e1a04000 	mov	r4, r0
 1003a68:	e1a0000c 	mov	r0, ip
 1003a6c:	eb000668 	bl	1005414 <__libc_disable_asynccancel>
 1003a70:	eaffffe7 	b	1003a14 <__libc_connect+0x44>
 1003a74:	0001d2dc 	.word	0x0001d2dc
 1003a78:	0001a660 	.word	0x0001a660
 1003a7c:	0001a608 	.word	0x0001a608

01003a80 <__libc_send>:
 1003a80:	e59fc0a4 	ldr	ip, [pc, #164]	; 1003b2c <__libc_send+0xac>
 1003a84:	e92d41f0 	push	{r4, r5, r6, r7, r8, lr}
 1003a88:	e08fc00c 	add	ip, pc, ip
 1003a8c:	e59cc000 	ldr	ip, [ip]
 1003a90:	e35c0000 	cmp	ip, #0
 1003a94:	1a00000c 	bne	1003acc <__libc_send+0x4c>
 1003a98:	e3007121 	movw	r7, #289	; 0x121
 1003a9c:	ef000000 	svc	0x00000000
 1003aa0:	e3700a01 	cmn	r0, #4096	; 0x1000
 1003aa4:	9a000005 	bls	1003ac0 <__libc_send+0x40>
 1003aa8:	e59f3080 	ldr	r3, [pc, #128]	; 1003b30 <__libc_send+0xb0>
 1003aac:	ee1d2f70 	mrc	15, 0, r2, cr13, cr0, {3}
 1003ab0:	e2600000 	rsb	r0, r0, #0
 1003ab4:	e79f3003 	ldr	r3, [pc, r3]
 1003ab8:	e7820003 	str	r0, [r2, r3]
 1003abc:	e3e00000 	mvn	r0, #0
 1003ac0:	e1a04000 	mov	r4, r0
 1003ac4:	e1a00004 	mov	r0, r4
 1003ac8:	e8bd81f0 	pop	{r4, r5, r6, r7, r8, pc}
 1003acc:	e1a07000 	mov	r7, r0
 1003ad0:	e1a06001 	mov	r6, r1
 1003ad4:	e1a05002 	mov	r5, r2
 1003ad8:	e1a04003 	mov	r4, r3
 1003adc:	eb000620 	bl	1005364 <__libc_enable_asynccancel>
 1003ae0:	e1a01006 	mov	r1, r6
 1003ae4:	e1a02005 	mov	r2, r5
 1003ae8:	e1a03004 	mov	r3, r4
 1003aec:	e1a0c000 	mov	ip, r0
 1003af0:	e1a00007 	mov	r0, r7
 1003af4:	e3007121 	movw	r7, #289	; 0x121
 1003af8:	ef000000 	svc	0x00000000
 1003afc:	e3700a01 	cmn	r0, #4096	; 0x1000
 1003b00:	9a000005 	bls	1003b1c <__libc_send+0x9c>
 1003b04:	e59f2028 	ldr	r2, [pc, #40]	; 1003b34 <__libc_send+0xb4>
 1003b08:	e2603000 	rsb	r3, r0, #0
 1003b0c:	ee1d1f70 	mrc	15, 0, r1, cr13, cr0, {3}
 1003b10:	e3e00000 	mvn	r0, #0
 1003b14:	e79f2002 	ldr	r2, [pc, r2]
 1003b18:	e7813002 	str	r3, [r1, r2]
 1003b1c:	e1a04000 	mov	r4, r0
 1003b20:	e1a0000c 	mov	r0, ip
 1003b24:	eb00063a 	bl	1005414 <__libc_disable_asynccancel>
 1003b28:	eaffffe5 	b	1003ac4 <__libc_send+0x44>
 1003b2c:	0001d22c 	.word	0x0001d22c
 1003b30:	0001a5b0 	.word	0x0001a5b0
 1003b34:	0001a550 	.word	0x0001a550

01003b38 <__GI_socket>:
 1003b38:	e92d4080 	push	{r7, lr}
 1003b3c:	e3007119 	movw	r7, #281	; 0x119
 1003b40:	ef000000 	svc	0x00000000
 1003b44:	e3700a01 	cmn	r0, #4096	; 0x1000
 1003b48:	98bd8080 	popls	{r7, pc}
 1003b4c:	e59f3014 	ldr	r3, [pc, #20]	; 1003b68 <__GI_socket+0x30>
 1003b50:	ee1d2f70 	mrc	15, 0, r2, cr13, cr0, {3}
 1003b54:	e2600000 	rsb	r0, r0, #0
 1003b58:	e79f3003 	ldr	r3, [pc, r3]
 1003b5c:	e7820003 	str	r0, [r2, r3]
 1003b60:	e3e00000 	mvn	r0, #0
 1003b64:	e8bd8080 	pop	{r7, pc}
 1003b68:	0001a50c 	.word	0x0001a50c
 1003b6c:	e3500401 	cmp	r0, #16777216	; 0x1000000
 1003b70:	2a000018 	bcs	1003bd8 <__GI_socket+0xa0>
 1003b74:	e1a03420 	lsr	r3, r0, #8
 1003b78:	e2432c01 	sub	r2, r3, #256	; 0x100
 1003b7c:	e52de004 	push	{lr}		; (str lr, [sp, #-4]!)
 1003b80:	e1a02822 	lsr	r2, r2, #16
 1003b84:	e2022008 	and	r2, r2, #8
 1003b88:	e1a03213 	lsl	r3, r3, r2
 1003b8c:	e243ea01 	sub	lr, r3, #4096	; 0x1000
 1003b90:	e1a0e82e 	lsr	lr, lr, #16
 1003b94:	e20ee004 	and	lr, lr, #4
 1003b98:	e1a03e13 	lsl	r3, r3, lr
 1003b9c:	e182200e 	orr	r2, r2, lr
 1003ba0:	e243c901 	sub	ip, r3, #16384	; 0x4000
 1003ba4:	e1a0c82c 	lsr	ip, ip, #16
 1003ba8:	e20cc002 	and	ip, ip, #2
 1003bac:	e1a03c13 	lsl	r3, r3, ip
 1003bb0:	e082200c 	add	r2, r2, ip
 1003bb4:	e1a01723 	lsr	r1, r3, #14
 1003bb8:	e1c137a3 	bic	r3, r1, r3, lsr #15
 1003bbc:	e0432002 	sub	r2, r3, r2
 1003bc0:	e2823013 	add	r3, r2, #19
 1003bc4:	e1a00330 	lsr	r0, r0, r3
 1003bc8:	e2000003 	and	r0, r0, #3
 1003bcc:	e0800102 	add	r0, r0, r2, lsl #2
 1003bd0:	e2800054 	add	r0, r0, #84	; 0x54
 1003bd4:	e49df004 	pop	{pc}		; (ldr pc, [sp], #4)
 1003bd8:	e3a0005f 	mov	r0, #95	; 0x5f
 1003bdc:	e12fff1e 	bx	lr

01003be0 <malloc>:
 1003be0:	e92d4ff0 	push	{r4, r5, r6, r7, r8, r9, sl, fp, lr}
 1003be4:	e24dd024 	sub	sp, sp, #36	; 0x24
 1003be8:	e59f47c8 	ldr	r4, [pc, #1992]	; 10043b8 <malloc+0x7d8>
 1003bec:	e1a06000 	mov	r6, r0
 1003bf0:	e59f37c4 	ldr	r3, [pc, #1988]	; 10043bc <malloc+0x7dc>
 1003bf4:	e28d0010 	add	r0, sp, #16
 1003bf8:	e08f4004 	add	r4, pc, r4
 1003bfc:	e7945003 	ldr	r5, [r4, r3]
 1003c00:	e59f37b8 	ldr	r3, [pc, #1976]	; 10043c0 <malloc+0x7e0>
 1003c04:	e1a02005 	mov	r2, r5
 1003c08:	e7943003 	ldr	r3, [r4, r3]
 1003c0c:	e1a01003 	mov	r1, r3
 1003c10:	e58d300c 	str	r3, [sp, #12]
 1003c14:	ebfff26e 	bl	10005d4 <_pthread_cleanup_push_defer>
 1003c18:	e1a00005 	mov	r0, r5
 1003c1c:	ebfff268 	bl	10005c4 <__pthread_mutex_lock>
 1003c20:	e3760021 	cmn	r6, #33	; 0x21
 1003c24:	9a000008 	bls	1003c4c <malloc+0x6c>
 1003c28:	e59f3794 	ldr	r3, [pc, #1940]	; 10043c4 <malloc+0x7e4>
 1003c2c:	ee1d2f70 	mrc	15, 0, r2, cr13, cr0, {3}
 1003c30:	e3a05000 	mov	r5, #0
 1003c34:	e3a0100c 	mov	r1, #12
 1003c38:	e79f3003 	ldr	r3, [pc, r3]
 1003c3c:	e7821003 	str	r1, [r2, r3]
 1003c40:	e1a00005 	mov	r0, r5
 1003c44:	e28dd024 	add	sp, sp, #36	; 0x24
 1003c48:	e8bd8ff0 	pop	{r4, r5, r6, r7, r8, r9, sl, fp, pc}
 1003c4c:	e59f3774 	ldr	r3, [pc, #1908]	; 10043c8 <malloc+0x7e8>
 1003c50:	e286600b 	add	r6, r6, #11
 1003c54:	e356000f 	cmp	r6, #15
 1003c58:	83c66007 	bichi	r6, r6, #7
 1003c5c:	e7944003 	ldr	r4, [r4, r3]
 1003c60:	93a06010 	movls	r6, #16
 1003c64:	e5947000 	ldr	r7, [r4]
 1003c68:	e2173001 	ands	r3, r7, #1
 1003c6c:	e58d300c 	str	r3, [sp, #12]
 1003c70:	1a000012 	bne	1003cc0 <malloc+0xe0>
 1003c74:	e3570000 	cmp	r7, #0
 1003c78:	1a000001 	bne	1003c84 <malloc+0xa4>
 1003c7c:	e1a00004 	mov	r0, r4
 1003c80:	eb000200 	bl	1004488 <__malloc_consolidate>
 1003c84:	e594502c 	ldr	r5, [r4, #44]	; 0x2c
 1003c88:	e2862010 	add	r2, r6, #16
 1003c8c:	e58d200c 	str	r2, [sp, #12]
 1003c90:	e5953004 	ldr	r3, [r5, #4]
 1003c94:	e3c33003 	bic	r3, r3, #3
 1003c98:	e1520003 	cmp	r2, r3
 1003c9c:	8a0000ee 	bhi	100405c <malloc+0x47c>
 1003ca0:	e0852006 	add	r2, r5, r6
 1003ca4:	e3861001 	orr	r1, r6, #1
 1003ca8:	e0436006 	sub	r6, r3, r6
 1003cac:	e584202c 	str	r2, [r4, #44]	; 0x2c
 1003cb0:	e3866001 	orr	r6, r6, #1
 1003cb4:	e5851004 	str	r1, [r5, #4]
 1003cb8:	e5826004 	str	r6, [r2, #4]
 1003cbc:	ea000019 	b	1003d28 <malloc+0x148>
 1003cc0:	e1570006 	cmp	r7, r6
 1003cc4:	3a000007 	bcc	1003ce8 <malloc+0x108>
 1003cc8:	e1a030a6 	lsr	r3, r6, #1
 1003ccc:	e2433008 	sub	r3, r3, #8
 1003cd0:	e0843003 	add	r3, r4, r3
 1003cd4:	e5935004 	ldr	r5, [r3, #4]
 1003cd8:	e3550000 	cmp	r5, #0
 1003cdc:	15b52008 	ldrne	r2, [r5, #8]!
 1003ce0:	15832004 	strne	r2, [r3, #4]
 1003ce4:	1a000034 	bne	1003dbc <malloc+0x1dc>
 1003ce8:	e35600ff 	cmp	r6, #255	; 0xff
 1003cec:	8a00000f 	bhi	1003d30 <malloc+0x150>
 1003cf0:	e2863034 	add	r3, r6, #52	; 0x34
 1003cf4:	e1a081a6 	lsr	r8, r6, #3
 1003cf8:	e0843003 	add	r3, r4, r3
 1003cfc:	e243c008 	sub	ip, r3, #8
 1003d00:	e5935004 	ldr	r5, [r3, #4]
 1003d04:	e15c0005 	cmp	ip, r5
 1003d08:	0a00000f 	beq	1003d4c <malloc+0x16c>
 1003d0c:	e0856006 	add	r6, r5, r6
 1003d10:	e595100c 	ldr	r1, [r5, #12]
 1003d14:	e5962004 	ldr	r2, [r6, #4]
 1003d18:	e3822001 	orr	r2, r2, #1
 1003d1c:	e5862004 	str	r2, [r6, #4]
 1003d20:	e5831004 	str	r1, [r3, #4]
 1003d24:	e581c008 	str	ip, [r1, #8]
 1003d28:	e2855008 	add	r5, r5, #8
 1003d2c:	ea000022 	b	1003dbc <malloc+0x1dc>
 1003d30:	e1a00006 	mov	r0, r6
 1003d34:	ebffff8c 	bl	1003b6c <__GI_socket+0x34>
 1003d38:	e3170002 	tst	r7, #2
 1003d3c:	e1a08000 	mov	r8, r0
 1003d40:	0a000001 	beq	1003d4c <malloc+0x16c>
 1003d44:	e1a00004 	mov	r0, r4
 1003d48:	eb0001ce 	bl	1004488 <__malloc_consolidate>
 1003d4c:	e594a030 	ldr	sl, [r4, #48]	; 0x30
 1003d50:	e2849034 	add	r9, r4, #52	; 0x34
 1003d54:	e286b010 	add	fp, r6, #16
 1003d58:	e3a02001 	mov	r2, #1
 1003d5c:	ea000036 	b	1003e3c <malloc+0x25c>
 1003d60:	e595300c 	ldr	r3, [r5, #12]
 1003d64:	e5957004 	ldr	r7, [r5, #4]
 1003d68:	e35600ff 	cmp	r6, #255	; 0xff
 1003d6c:	91530009 	cmpls	r3, r9
 1003d70:	e3c77003 	bic	r7, r7, #3
 1003d74:	1a000014 	bne	1003dcc <malloc+0x1ec>
 1003d78:	e15a0005 	cmp	sl, r5
 1003d7c:	1a000012 	bne	1003dcc <malloc+0x1ec>
 1003d80:	e15b0007 	cmp	fp, r7
 1003d84:	2a000010 	bcs	1003dcc <malloc+0x1ec>
 1003d88:	e08a3006 	add	r3, sl, r6
 1003d8c:	e28a5008 	add	r5, sl, #8
 1003d90:	e0472006 	sub	r2, r7, r6
 1003d94:	e584303c 	str	r3, [r4, #60]	; 0x3c
 1003d98:	e5843040 	str	r3, [r4, #64]	; 0x40
 1003d9c:	e3866001 	orr	r6, r6, #1
 1003da0:	e5843030 	str	r3, [r4, #48]	; 0x30
 1003da4:	e3821001 	orr	r1, r2, #1
 1003da8:	e5839008 	str	r9, [r3, #8]
 1003dac:	e583900c 	str	r9, [r3, #12]
 1003db0:	e58a6004 	str	r6, [sl, #4]
 1003db4:	e5831004 	str	r1, [r3, #4]
 1003db8:	e78a2007 	str	r2, [sl, r7]
 1003dbc:	e28d0010 	add	r0, sp, #16
 1003dc0:	e3a01001 	mov	r1, #1
 1003dc4:	ebfff204 	bl	10005dc <_pthread_cleanup_pop_restore>
 1003dc8:	eaffff9c 	b	1003c40 <malloc+0x60>
 1003dcc:	e1560007 	cmp	r6, r7
 1003dd0:	e5843040 	str	r3, [r4, #64]	; 0x40
 1003dd4:	e5839008 	str	r9, [r3, #8]
 1003dd8:	1a000004 	bne	1003df0 <malloc+0x210>
 1003ddc:	e0856006 	add	r6, r5, r6
 1003de0:	e5963004 	ldr	r3, [r6, #4]
 1003de4:	e3833001 	orr	r3, r3, #1
 1003de8:	e5863004 	str	r3, [r6, #4]
 1003dec:	eaffffcd 	b	1003d28 <malloc+0x148>
 1003df0:	e35700ff 	cmp	r7, #255	; 0xff
 1003df4:	8a00003c 	bhi	1003eec <malloc+0x30c>
 1003df8:	e1a001a7 	lsr	r0, r7, #3
 1003dfc:	e1a03080 	lsl	r3, r0, #1
 1003e00:	e283300d 	add	r3, r3, #13
 1003e04:	e0841103 	add	r1, r4, r3, lsl #2
 1003e08:	e7943103 	ldr	r3, [r4, r3, lsl #2]
 1003e0c:	e2411008 	sub	r1, r1, #8
 1003e10:	e1a0c2c0 	asr	ip, r0, #5
 1003e14:	e200001f 	and	r0, r0, #31
 1003e18:	e28cc0cc 	add	ip, ip, #204	; 0xcc
 1003e1c:	e084c10c 	add	ip, r4, ip, lsl #2
 1003e20:	e59ce004 	ldr	lr, [ip, #4]
 1003e24:	e18e0012 	orr	r0, lr, r2, lsl r0
 1003e28:	e58c0004 	str	r0, [ip, #4]
 1003e2c:	e585100c 	str	r1, [r5, #12]
 1003e30:	e5853008 	str	r3, [r5, #8]
 1003e34:	e583500c 	str	r5, [r3, #12]
 1003e38:	e5815008 	str	r5, [r1, #8]
 1003e3c:	e5945040 	ldr	r5, [r4, #64]	; 0x40
 1003e40:	e1550009 	cmp	r5, r9
 1003e44:	1affffc5 	bne	1003d60 <malloc+0x180>
 1003e48:	e35600ff 	cmp	r6, #255	; 0xff
 1003e4c:	80843188 	addhi	r3, r4, r8, lsl #3
 1003e50:	8283002c 	addhi	r0, r3, #44	; 0x2c
 1003e54:	85933038 	ldrhi	r3, [r3, #56]	; 0x38
 1003e58:	8a000051 	bhi	1003fa4 <malloc+0x3c4>
 1003e5c:	e2888001 	add	r8, r8, #1
 1003e60:	e208001f 	and	r0, r8, #31
 1003e64:	e1a0c2a8 	lsr	ip, r8, #5
 1003e68:	e0843188 	add	r3, r4, r8, lsl #3
 1003e6c:	e3a08001 	mov	r8, #1
 1003e70:	e283302c 	add	r3, r3, #44	; 0x2c
 1003e74:	e084210c 	add	r2, r4, ip, lsl #2
 1003e78:	e1a08018 	lsl	r8, r8, r0
 1003e7c:	e2840fcd 	add	r0, r4, #820	; 0x334
 1003e80:	e5921334 	ldr	r1, [r2, #820]	; 0x334
 1003e84:	e16f2f18 	clz	r2, r8
 1003e88:	e1a022a2 	lsr	r2, r2, #5
 1003e8c:	e1580001 	cmp	r8, r1
 1003e90:	83822001 	orrhi	r2, r2, #1
 1003e94:	e3520000 	cmp	r2, #0
 1003e98:	0a000008 	beq	1003ec0 <malloc+0x2e0>
 1003e9c:	e28cc001 	add	ip, ip, #1
 1003ea0:	e35c0002 	cmp	ip, #2
 1003ea4:	8affff76 	bhi	1003c84 <malloc+0xa4>
 1003ea8:	e790110c 	ldr	r1, [r0, ip, lsl #2]
 1003eac:	e3510000 	cmp	r1, #0
 1003eb0:	0afffff9 	beq	1003e9c <malloc+0x2bc>
 1003eb4:	e084340c 	add	r3, r4, ip, lsl #8
 1003eb8:	e59d800c 	ldr	r8, [sp, #12]
 1003ebc:	e283302c 	add	r3, r3, #44	; 0x2c
 1003ec0:	e1180001 	tst	r8, r1
 1003ec4:	0a000046 	beq	1003fe4 <malloc+0x404>
 1003ec8:	e593200c 	ldr	r2, [r3, #12]
 1003ecc:	e1530002 	cmp	r3, r2
 1003ed0:	1a000046 	bne	1003ff0 <malloc+0x410>
 1003ed4:	e084210c 	add	r2, r4, ip, lsl #2
 1003ed8:	e1c11008 	bic	r1, r1, r8
 1003edc:	e2833008 	add	r3, r3, #8
 1003ee0:	e1a08088 	lsl	r8, r8, #1
 1003ee4:	e5821334 	str	r1, [r2, #820]	; 0x334
 1003ee8:	eaffffe5 	b	1003e84 <malloc+0x2a4>
 1003eec:	e1a00007 	mov	r0, r7
 1003ef0:	ebffff1d 	bl	1003b6c <__GI_socket+0x34>
 1003ef4:	e3a02001 	mov	r2, #1
 1003ef8:	e1a03080 	lsl	r3, r0, #1
 1003efc:	e283300d 	add	r3, r3, #13
 1003f00:	e0841103 	add	r1, r4, r3, lsl #2
 1003f04:	e7943103 	ldr	r3, [r4, r3, lsl #2]
 1003f08:	e241c008 	sub	ip, r1, #8
 1003f0c:	e15c0003 	cmp	ip, r3
 1003f10:	01a01003 	moveq	r1, r3
 1003f14:	0affffbd 	beq	1003e10 <malloc+0x230>
 1003f18:	e5911004 	ldr	r1, [r1, #4]
 1003f1c:	e591e004 	ldr	lr, [r1, #4]
 1003f20:	e15e0007 	cmp	lr, r7
 1003f24:	91877002 	orrls	r7, r7, r2
 1003f28:	9a000002 	bls	1003f38 <malloc+0x358>
 1003f2c:	e1a0300c 	mov	r3, ip
 1003f30:	eaffffb6 	b	1003e10 <malloc+0x230>
 1003f34:	e5933008 	ldr	r3, [r3, #8]
 1003f38:	e5931004 	ldr	r1, [r3, #4]
 1003f3c:	e1510007 	cmp	r1, r7
 1003f40:	8afffffb 	bhi	1003f34 <malloc+0x354>
 1003f44:	e593100c 	ldr	r1, [r3, #12]
 1003f48:	eaffffb0 	b	1003e10 <malloc+0x230>
 1003f4c:	e35c000f 	cmp	ip, #15
 1003f50:	e580100c 	str	r1, [r0, #12]
 1003f54:	e5810008 	str	r0, [r1, #8]
 1003f58:	e0831002 	add	r1, r3, r2
 1003f5c:	e2835008 	add	r5, r3, #8
 1003f60:	95913004 	ldrls	r3, [r1, #4]
 1003f64:	93833001 	orrls	r3, r3, #1
 1003f68:	95813004 	strls	r3, [r1, #4]
 1003f6c:	9affff92 	bls	1003dbc <malloc+0x1dc>
 1003f70:	e0831006 	add	r1, r3, r6
 1003f74:	e2844034 	add	r4, r4, #52	; 0x34
 1003f78:	e5841008 	str	r1, [r4, #8]
 1003f7c:	e3866001 	orr	r6, r6, #1
 1003f80:	e584100c 	str	r1, [r4, #12]
 1003f84:	e38c0001 	orr	r0, ip, #1
 1003f88:	e5814008 	str	r4, [r1, #8]
 1003f8c:	e581400c 	str	r4, [r1, #12]
 1003f90:	e5836004 	str	r6, [r3, #4]
 1003f94:	e5810004 	str	r0, [r1, #4]
 1003f98:	e783c002 	str	ip, [r3, r2]
 1003f9c:	eaffff86 	b	1003dbc <malloc+0x1dc>
 1003fa0:	e1a03001 	mov	r3, r1
 1003fa4:	e1530000 	cmp	r3, r0
 1003fa8:	0affffab 	beq	1003e5c <malloc+0x27c>
 1003fac:	e5932004 	ldr	r2, [r3, #4]
 1003fb0:	e593100c 	ldr	r1, [r3, #12]
 1003fb4:	e3c22003 	bic	r2, r2, #3
 1003fb8:	e1560002 	cmp	r6, r2
 1003fbc:	8afffff7 	bhi	1003fa0 <malloc+0x3c0>
 1003fc0:	e5930008 	ldr	r0, [r3, #8]
 1003fc4:	e042c006 	sub	ip, r2, r6
 1003fc8:	e590e00c 	ldr	lr, [r0, #12]
 1003fcc:	e15e0003 	cmp	lr, r3
 1003fd0:	1a000002 	bne	1003fe0 <malloc+0x400>
 1003fd4:	e591e008 	ldr	lr, [r1, #8]
 1003fd8:	e15e0003 	cmp	lr, r3
 1003fdc:	0affffda 	beq	1003f4c <malloc+0x36c>
 1003fe0:	ebfff0de 	bl	1000360 <__GI_abort>
 1003fe4:	e2833008 	add	r3, r3, #8
 1003fe8:	e1a08088 	lsl	r8, r8, #1
 1003fec:	eaffffb3 	b	1003ec0 <malloc+0x2e0>
 1003ff0:	e5921004 	ldr	r1, [r2, #4]
 1003ff4:	e2825008 	add	r5, r2, #8
 1003ff8:	e592000c 	ldr	r0, [r2, #12]
 1003ffc:	e3c11003 	bic	r1, r1, #3
 1004000:	e041c006 	sub	ip, r1, r6
 1004004:	e583000c 	str	r0, [r3, #12]
 1004008:	e35c000f 	cmp	ip, #15
 100400c:	e5803008 	str	r3, [r0, #8]
 1004010:	e0820001 	add	r0, r2, r1
 1004014:	95903004 	ldrls	r3, [r0, #4]
 1004018:	93833001 	orrls	r3, r3, #1
 100401c:	95803004 	strls	r3, [r0, #4]
 1004020:	9affff65 	bls	1003dbc <malloc+0x1dc>
 1004024:	e0823006 	add	r3, r2, r6
 1004028:	e2840034 	add	r0, r4, #52	; 0x34
 100402c:	e584303c 	str	r3, [r4, #60]	; 0x3c
 1004030:	e35600ff 	cmp	r6, #255	; 0xff
 1004034:	e5843040 	str	r3, [r4, #64]	; 0x40
 1004038:	e3866001 	orr	r6, r6, #1
 100403c:	e5830008 	str	r0, [r3, #8]
 1004040:	e583000c 	str	r0, [r3, #12]
 1004044:	e38c0001 	orr	r0, ip, #1
 1004048:	95843030 	strls	r3, [r4, #48]	; 0x30
 100404c:	e5826004 	str	r6, [r2, #4]
 1004050:	e5830004 	str	r0, [r3, #4]
 1004054:	e782c001 	str	ip, [r2, r1]
 1004058:	eaffff57 	b	1003dbc <malloc+0x1dc>
 100405c:	e5940000 	ldr	r0, [r4]
 1004060:	e594835c 	ldr	r8, [r4, #860]	; 0x35c
 1004064:	e2100002 	ands	r0, r0, #2
 1004068:	e2487001 	sub	r7, r8, #1
 100406c:	0a000005 	beq	1004088 <malloc+0x4a8>
 1004070:	e1a00004 	mov	r0, r4
 1004074:	eb000103 	bl	1004488 <__malloc_consolidate>
 1004078:	e2460007 	sub	r0, r6, #7
 100407c:	ebfffed7 	bl	1003be0 <malloc>
 1004080:	e1a05000 	mov	r5, r0
 1004084:	eaffff4c 	b	1003dbc <malloc+0x1dc>
 1004088:	e594334c 	ldr	r3, [r4, #844]	; 0x34c
 100408c:	e2689000 	rsb	r9, r8, #0
 1004090:	e1560003 	cmp	r6, r3
 1004094:	3a00002b 	bcc	1004148 <malloc+0x568>
 1004098:	e5942350 	ldr	r2, [r4, #848]	; 0x350
 100409c:	e5943354 	ldr	r3, [r4, #852]	; 0x354
 10040a0:	e1520003 	cmp	r2, r3
 10040a4:	aa000027 	bge	1004148 <malloc+0x568>
 10040a8:	e288800a 	add	r8, r8, #10
 10040ac:	e0888006 	add	r8, r8, r6
 10040b0:	e0088009 	and	r8, r8, r9
 10040b4:	e1560008 	cmp	r6, r8
 10040b8:	2a000022 	bcs	1004148 <malloc+0x568>
 10040bc:	e3a03022 	mov	r3, #34	; 0x22
 10040c0:	e3a02003 	mov	r2, #3
 10040c4:	e1a01008 	mov	r1, r8
 10040c8:	e58d0004 	str	r0, [sp, #4]
 10040cc:	e58d0000 	str	r0, [sp]
 10040d0:	eb0005d0 	bl	1005818 <__GI_mmap>
 10040d4:	e3700001 	cmn	r0, #1
 10040d8:	0a00001a 	beq	1004148 <malloc+0x568>
 10040dc:	e2103007 	ands	r3, r0, #7
 10040e0:	05803000 	streq	r3, [r0]
 10040e4:	12633008 	rsbne	r3, r3, #8
 10040e8:	03883002 	orreq	r3, r8, #2
 10040ec:	17a03003 	strne	r3, [r0, r3]!
 10040f0:	10483003 	subne	r3, r8, r3
 10040f4:	13833002 	orrne	r3, r3, #2
 10040f8:	e5803004 	str	r3, [r0, #4]
 10040fc:	e5943350 	ldr	r3, [r4, #848]	; 0x350
 1004100:	e2805008 	add	r5, r0, #8
 1004104:	e5942358 	ldr	r2, [r4, #856]	; 0x358
 1004108:	e2833001 	add	r3, r3, #1
 100410c:	e5941364 	ldr	r1, [r4, #868]	; 0x364
 1004110:	e1530002 	cmp	r3, r2
 1004114:	e5843350 	str	r3, [r4, #848]	; 0x350
 1004118:	c5843358 	strgt	r3, [r4, #856]	; 0x358
 100411c:	e0888001 	add	r8, r8, r1
 1004120:	e5943370 	ldr	r3, [r4, #880]	; 0x370
 1004124:	e5941368 	ldr	r1, [r4, #872]	; 0x368
 1004128:	e1580003 	cmp	r8, r3
 100412c:	e5943374 	ldr	r3, [r4, #884]	; 0x374
 1004130:	85848370 	strhi	r8, [r4, #880]	; 0x370
 1004134:	e5848364 	str	r8, [r4, #868]	; 0x364
 1004138:	e0888001 	add	r8, r8, r1
 100413c:	e1580003 	cmp	r8, r3
 1004140:	85848374 	strhi	r8, [r4, #884]	; 0x374
 1004144:	eaffff1c 	b	1003dbc <malloc+0x1dc>
 1004148:	e594a02c 	ldr	sl, [r4, #44]	; 0x2c
 100414c:	e5941348 	ldr	r1, [r4, #840]	; 0x348
 1004150:	e5943360 	ldr	r3, [r4, #864]	; 0x360
 1004154:	e59a5004 	ldr	r5, [sl, #4]
 1004158:	e2811010 	add	r1, r1, #16
 100415c:	e0811006 	add	r1, r1, r6
 1004160:	e3130001 	tst	r3, #1
 1004164:	e3c55003 	bic	r5, r5, #3
 1004168:	10411005 	subne	r1, r1, r5
 100416c:	e08a8005 	add	r8, sl, r5
 1004170:	e0871001 	add	r1, r7, r1
 1004174:	e001b009 	and	fp, r1, r9
 1004178:	e35b0000 	cmp	fp, #0
 100417c:	ca000017 	bgt	10041e0 <malloc+0x600>
 1004180:	e5943360 	ldr	r3, [r4, #864]	; 0x360
 1004184:	e3130001 	tst	r3, #1
 1004188:	10873005 	addne	r3, r7, r5
 100418c:	1083100b 	addne	r1, r3, fp
 1004190:	1001b009 	andne	fp, r1, r9
 1004194:	e35b0601 	cmp	fp, #1048576	; 0x100000
 1004198:	33a0b601 	movcc	fp, #1048576	; 0x100000
 100419c:	e156000b 	cmp	r6, fp
 10041a0:	2a000068 	bcs	1004348 <malloc+0x768>
 10041a4:	e3a00000 	mov	r0, #0
 10041a8:	e3a03022 	mov	r3, #34	; 0x22
 10041ac:	e3a02003 	mov	r2, #3
 10041b0:	e1a0100b 	mov	r1, fp
 10041b4:	e58d0004 	str	r0, [sp, #4]
 10041b8:	e58d0000 	str	r0, [sp]
 10041bc:	eb000595 	bl	1005818 <__GI_mmap>
 10041c0:	e3700001 	cmn	r0, #1
 10041c4:	e1a03000 	mov	r3, r0
 10041c8:	0a00005e 	beq	1004348 <malloc+0x768>
 10041cc:	e5942360 	ldr	r2, [r4, #864]	; 0x360
 10041d0:	e080000b 	add	r0, r0, fp
 10041d4:	e3c22001 	bic	r2, r2, #1
 10041d8:	e5842360 	str	r2, [r4, #864]	; 0x360
 10041dc:	ea000005 	b	10041f8 <malloc+0x618>
 10041e0:	e1a0000b 	mov	r0, fp
 10041e4:	eb0005fa 	bl	10059d4 <__GI_sbrk>
 10041e8:	e3700001 	cmn	r0, #1
 10041ec:	e1a03000 	mov	r3, r0
 10041f0:	13e00000 	mvnne	r0, #0
 10041f4:	0affffe1 	beq	1004180 <malloc+0x5a0>
 10041f8:	e5942368 	ldr	r2, [r4, #872]	; 0x368
 10041fc:	e1580003 	cmp	r8, r3
 1004200:	03700001 	cmneq	r0, #1
 1004204:	0085100b 	addeq	r1, r5, fp
 1004208:	e08b2002 	add	r2, fp, r2
 100420c:	03811001 	orreq	r1, r1, #1
 1004210:	e5842368 	str	r2, [r4, #872]	; 0x368
 1004214:	058a1004 	streq	r1, [sl, #4]
 1004218:	0a00003b 	beq	100430c <malloc+0x72c>
 100421c:	e594c360 	ldr	ip, [r4, #864]	; 0x360
 1004220:	e31c0001 	tst	ip, #1
 1004224:	0a000055 	beq	1004380 <malloc+0x7a0>
 1004228:	e3550000 	cmp	r5, #0
 100422c:	11580003 	cmpne	r8, r3
 1004230:	83ccc001 	bichi	ip, ip, #1
 1004234:	8584c360 	strhi	ip, [r4, #864]	; 0x360
 1004238:	8a000050 	bhi	1004380 <malloc+0x7a0>
 100423c:	e3550000 	cmp	r5, #0
 1004240:	e58d300c 	str	r3, [sp, #12]
 1004244:	10438008 	subne	r8, r3, r8
 1004248:	10882002 	addne	r2, r8, r2
 100424c:	15842368 	strne	r2, [r4, #872]	; 0x368
 1004250:	e2132007 	ands	r2, r3, #7
 1004254:	12622008 	rsbne	r2, r2, #8
 1004258:	10838002 	addne	r8, r3, r2
 100425c:	e0822005 	add	r2, r2, r5
 1004260:	e08b0002 	add	r0, fp, r2
 1004264:	01a08003 	moveq	r8, r3
 1004268:	e0830000 	add	r0, r3, r0
 100426c:	e0877000 	add	r7, r7, r0
 1004270:	e0422000 	sub	r2, r2, r0
 1004274:	e0099007 	and	r9, r9, r7
 1004278:	e0899002 	add	r9, r9, r2
 100427c:	e1a00009 	mov	r0, r9
 1004280:	eb0005d3 	bl	10059d4 <__GI_sbrk>
 1004284:	e59d300c 	ldr	r3, [sp, #12]
 1004288:	e3700001 	cmn	r0, #1
 100428c:	1a000034 	bne	1004364 <malloc+0x784>
 1004290:	e3a00000 	mov	r0, #0
 1004294:	eb0005ce 	bl	10059d4 <__GI_sbrk>
 1004298:	e3700001 	cmn	r0, #1
 100429c:	0a00001a 	beq	100430c <malloc+0x72c>
 10042a0:	e3a09000 	mov	r9, #0
 10042a4:	e5942368 	ldr	r2, [r4, #872]	; 0x368
 10042a8:	e0400008 	sub	r0, r0, r8
 10042ac:	e3550000 	cmp	r5, #0
 10042b0:	e0800009 	add	r0, r0, r9
 10042b4:	e3800001 	orr	r0, r0, #1
 10042b8:	e0829009 	add	r9, r2, r9
 10042bc:	e584802c 	str	r8, [r4, #44]	; 0x2c
 10042c0:	e5880004 	str	r0, [r8, #4]
 10042c4:	e5849368 	str	r9, [r4, #872]	; 0x368
 10042c8:	0a00000f 	beq	100430c <malloc+0x72c>
 10042cc:	e245500c 	sub	r5, r5, #12
 10042d0:	e3a02005 	mov	r2, #5
 10042d4:	e3c55007 	bic	r5, r5, #7
 10042d8:	e3853001 	orr	r3, r5, #1
 10042dc:	e355000f 	cmp	r5, #15
 10042e0:	e58a3004 	str	r3, [sl, #4]
 10042e4:	e08a3005 	add	r3, sl, r5
 10042e8:	e5832004 	str	r2, [r3, #4]
 10042ec:	e5832008 	str	r2, [r3, #8]
 10042f0:	9a000005 	bls	100430c <malloc+0x72c>
 10042f4:	e5945344 	ldr	r5, [r4, #836]	; 0x344
 10042f8:	e28a0008 	add	r0, sl, #8
 10042fc:	e3e03000 	mvn	r3, #0
 1004300:	e5843344 	str	r3, [r4, #836]	; 0x344
 1004304:	eb0000d4 	bl	100465c <free>
 1004308:	e5845344 	str	r5, [r4, #836]	; 0x344
 100430c:	e5943368 	ldr	r3, [r4, #872]	; 0x368
 1004310:	e594236c 	ldr	r2, [r4, #876]	; 0x36c
 1004314:	e594502c 	ldr	r5, [r4, #44]	; 0x2c
 1004318:	e1530002 	cmp	r3, r2
 100431c:	e5942364 	ldr	r2, [r4, #868]	; 0x364
 1004320:	8584336c 	strhi	r3, [r4, #876]	; 0x36c
 1004324:	e0833002 	add	r3, r3, r2
 1004328:	e5942374 	ldr	r2, [r4, #884]	; 0x374
 100432c:	e1530002 	cmp	r3, r2
 1004330:	85843374 	strhi	r3, [r4, #884]	; 0x374
 1004334:	e5953004 	ldr	r3, [r5, #4]
 1004338:	e2862010 	add	r2, r6, #16
 100433c:	e3c33003 	bic	r3, r3, #3
 1004340:	e1520003 	cmp	r2, r3
 1004344:	9afffe55 	bls	1003ca0 <malloc+0xc0>
 1004348:	e59f307c 	ldr	r3, [pc, #124]	; 10043cc <malloc+0x7ec>
 100434c:	ee1d2f70 	mrc	15, 0, r2, cr13, cr0, {3}
 1004350:	e3a0100c 	mov	r1, #12
 1004354:	e3a05000 	mov	r5, #0
 1004358:	e79f3003 	ldr	r3, [pc, r3]
 100435c:	e7821003 	str	r1, [r2, r3]
 1004360:	eafffe95 	b	1003dbc <malloc+0x1dc>
 1004364:	e1500003 	cmp	r0, r3
 1004368:	2affffcd 	bcs	10042a4 <malloc+0x6c4>
 100436c:	e083000b 	add	r0, r3, fp
 1004370:	e5943360 	ldr	r3, [r4, #864]	; 0x360
 1004374:	e3c33001 	bic	r3, r3, #1
 1004378:	e5843360 	str	r3, [r4, #864]	; 0x360
 100437c:	eaffffc5 	b	1004298 <malloc+0x6b8>
 1004380:	e3700001 	cmn	r0, #1
 1004384:	11a08003 	movne	r8, r3
 1004388:	1affffc4 	bne	10042a0 <malloc+0x6c0>
 100438c:	e3a00000 	mov	r0, #0
 1004390:	e58d300c 	str	r3, [sp, #12]
 1004394:	eb00058e 	bl	10059d4 <__GI_sbrk>
 1004398:	e59d300c 	ldr	r3, [sp, #12]
 100439c:	e1a08003 	mov	r8, r3
 10043a0:	e0402003 	sub	r2, r0, r3
 10043a4:	e042100b 	sub	r1, r2, fp
 10043a8:	e5942368 	ldr	r2, [r4, #872]	; 0x368
 10043ac:	e0811002 	add	r1, r1, r2
 10043b0:	e5841368 	str	r1, [r4, #872]	; 0x368
 10043b4:	eaffffb7 	b	1004298 <malloc+0x6b8>
 10043b8:	0001a400 	.word	0x0001a400
 10043bc:	0000007c 	.word	0x0000007c
 10043c0:	0000004c 	.word	0x0000004c
 10043c4:	0001a42c 	.word	0x0001a42c
 10043c8:	00000048 	.word	0x00000048
 10043cc:	00019d0c 	.word	0x00019d0c
 10043d0:	e59f30a8 	ldr	r3, [pc, #168]	; 1004480 <malloc+0x8a0>
 10043d4:	e59f20a8 	ldr	r2, [pc, #168]	; 1004484 <malloc+0x8a4>
 10043d8:	e08f3003 	add	r3, pc, r3
 10043dc:	e92d41f0 	push	{r4, r5, r6, r7, r8, lr}
 10043e0:	e7936002 	ldr	r6, [r3, r2]
 10043e4:	e596302c 	ldr	r3, [r6, #44]	; 0x2c
 10043e8:	e596535c 	ldr	r5, [r6, #860]	; 0x35c
 10043ec:	e5934004 	ldr	r4, [r3, #4]
 10043f0:	e2453011 	sub	r3, r5, #17
 10043f4:	e1a01005 	mov	r1, r5
 10043f8:	e3c44003 	bic	r4, r4, #3
 10043fc:	e0833004 	add	r3, r3, r4
 1004400:	e0430000 	sub	r0, r3, r0
 1004404:	eb00172f 	bl	100a0c8 <__udivsi3>
 1004408:	e2407001 	sub	r7, r0, #1
 100440c:	e0070795 	mul	r7, r5, r7
 1004410:	e3570000 	cmp	r7, #0
 1004414:	ca000001 	bgt	1004420 <malloc+0x840>
 1004418:	e3a00000 	mov	r0, #0
 100441c:	e8bd81f0 	pop	{r4, r5, r6, r7, r8, pc}
 1004420:	e3a00000 	mov	r0, #0
 1004424:	eb00056a 	bl	10059d4 <__GI_sbrk>
 1004428:	e596302c 	ldr	r3, [r6, #44]	; 0x2c
 100442c:	e0833004 	add	r3, r3, r4
 1004430:	e1500003 	cmp	r0, r3
 1004434:	e1a05000 	mov	r5, r0
 1004438:	1afffff6 	bne	1004418 <malloc+0x838>
 100443c:	e2670000 	rsb	r0, r7, #0
 1004440:	eb000563 	bl	10059d4 <__GI_sbrk>
 1004444:	e3a00000 	mov	r0, #0
 1004448:	eb000561 	bl	10059d4 <__GI_sbrk>
 100444c:	e3700001 	cmn	r0, #1
 1004450:	0afffff0 	beq	1004418 <malloc+0x838>
 1004454:	e0555000 	subs	r5, r5, r0
 1004458:	0affffee 	beq	1004418 <malloc+0x838>
 100445c:	e5963368 	ldr	r3, [r6, #872]	; 0x368
 1004460:	e3a00001 	mov	r0, #1
 1004464:	e0433005 	sub	r3, r3, r5
 1004468:	e5863368 	str	r3, [r6, #872]	; 0x368
 100446c:	e596302c 	ldr	r3, [r6, #44]	; 0x2c
 1004470:	e0445005 	sub	r5, r4, r5
 1004474:	e3855001 	orr	r5, r5, #1
 1004478:	e5835004 	str	r5, [r3, #4]
 100447c:	e8bd81f0 	pop	{r4, r5, r6, r7, r8, pc}
 1004480:	00019c20 	.word	0x00019c20
 1004484:	00000048 	.word	0x00000048

01004488 <__malloc_consolidate>:
 1004488:	e92d47f0 	push	{r4, r5, r6, r7, r8, r9, sl, lr}
 100448c:	e1a0e000 	mov	lr, r0
 1004490:	e49e3034 	ldr	r3, [lr], #52	; 0x34
 1004494:	e1a04000 	mov	r4, r0
 1004498:	e3530000 	cmp	r3, #0
 100449c:	0a000047 	beq	10045c0 <__malloc_consolidate+0x138>
 10044a0:	e3c33002 	bic	r3, r3, #2
 10044a4:	e1a06000 	mov	r6, r0
 10044a8:	e3a08000 	mov	r8, #0
 10044ac:	e5803000 	str	r3, [r0]
 10044b0:	e1a011a3 	lsr	r1, r3, #3
 10044b4:	e2411001 	sub	r1, r1, #1
 10044b8:	e0801101 	add	r1, r0, r1, lsl #2
 10044bc:	e5b65004 	ldr	r5, [r6, #4]!
 10044c0:	e3550000 	cmp	r5, #0
 10044c4:	1a000002 	bne	10044d4 <__malloc_consolidate+0x4c>
 10044c8:	e1510006 	cmp	r1, r6
 10044cc:	1afffffa 	bne	10044bc <__malloc_consolidate+0x34>
 10044d0:	e8bd87f0 	pop	{r4, r5, r6, r7, r8, r9, sl, pc}
 10044d4:	e5868000 	str	r8, [r6]
 10044d8:	e1a03005 	mov	r3, r5
 10044dc:	e5955008 	ldr	r5, [r5, #8]
 10044e0:	e5937004 	ldr	r7, [r3, #4]
 10044e4:	e3c72001 	bic	r2, r7, #1
 10044e8:	e3170001 	tst	r7, #1
 10044ec:	e0830002 	add	r0, r3, r2
 10044f0:	e590c004 	ldr	ip, [r0, #4]
 10044f4:	e3ccc003 	bic	ip, ip, #3
 10044f8:	1a00000d 	bne	1004534 <__malloc_consolidate+0xac>
 10044fc:	e5937000 	ldr	r7, [r3]
 1004500:	e0433007 	sub	r3, r3, r7
 1004504:	e0822007 	add	r2, r2, r7
 1004508:	e5939008 	ldr	r9, [r3, #8]
 100450c:	e593700c 	ldr	r7, [r3, #12]
 1004510:	e599a00c 	ldr	sl, [r9, #12]
 1004514:	e15a0003 	cmp	sl, r3
 1004518:	0a000000 	beq	1004520 <__malloc_consolidate+0x98>
 100451c:	ebffef8f 	bl	1000360 <__GI_abort>
 1004520:	e597a008 	ldr	sl, [r7, #8]
 1004524:	e15a0003 	cmp	sl, r3
 1004528:	1afffffb 	bne	100451c <__malloc_consolidate+0x94>
 100452c:	e589700c 	str	r7, [r9, #12]
 1004530:	e5879008 	str	r9, [r7, #8]
 1004534:	e594702c 	ldr	r7, [r4, #44]	; 0x2c
 1004538:	e1570000 	cmp	r7, r0
 100453c:	0a00001a 	beq	10045ac <__malloc_consolidate+0x124>
 1004540:	e080700c 	add	r7, r0, ip
 1004544:	e5977004 	ldr	r7, [r7, #4]
 1004548:	e580c004 	str	ip, [r0, #4]
 100454c:	e3170001 	tst	r7, #1
 1004550:	1a00000a 	bne	1004580 <__malloc_consolidate+0xf8>
 1004554:	e5907008 	ldr	r7, [r0, #8]
 1004558:	e082200c 	add	r2, r2, ip
 100455c:	e590c00c 	ldr	ip, [r0, #12]
 1004560:	e597900c 	ldr	r9, [r7, #12]
 1004564:	e1590000 	cmp	r9, r0
 1004568:	1affffeb 	bne	100451c <__malloc_consolidate+0x94>
 100456c:	e59c9008 	ldr	r9, [ip, #8]
 1004570:	e1590000 	cmp	r9, r0
 1004574:	1affffe8 	bne	100451c <__malloc_consolidate+0x94>
 1004578:	e587c00c 	str	ip, [r7, #12]
 100457c:	e58c7008 	str	r7, [ip, #8]
 1004580:	e594003c 	ldr	r0, [r4, #60]	; 0x3c
 1004584:	e382c001 	orr	ip, r2, #1
 1004588:	e584303c 	str	r3, [r4, #60]	; 0x3c
 100458c:	e580300c 	str	r3, [r0, #12]
 1004590:	e583c004 	str	ip, [r3, #4]
 1004594:	e583e00c 	str	lr, [r3, #12]
 1004598:	e5830008 	str	r0, [r3, #8]
 100459c:	e7832002 	str	r2, [r3, r2]
 10045a0:	e3550000 	cmp	r5, #0
 10045a4:	1affffcb 	bne	10044d8 <__malloc_consolidate+0x50>
 10045a8:	eaffffc6 	b	10044c8 <__malloc_consolidate+0x40>
 10045ac:	e082200c 	add	r2, r2, ip
 10045b0:	e3822001 	orr	r2, r2, #1
 10045b4:	e5832004 	str	r2, [r3, #4]
 10045b8:	e584302c 	str	r3, [r4, #44]	; 0x2c
 10045bc:	eafffff7 	b	10045a0 <__malloc_consolidate+0x118>
 10045c0:	e2802fcb 	add	r2, r0, #812	; 0x32c
 10045c4:	e1a0300e 	mov	r3, lr
 10045c8:	e583300c 	str	r3, [r3, #12]
 10045cc:	e5833008 	str	r3, [r3, #8]
 10045d0:	e2833008 	add	r3, r3, #8
 10045d4:	e1520003 	cmp	r2, r3
 10045d8:	1afffffa 	bne	10045c8 <__malloc_consolidate+0x140>
 10045dc:	e3a03000 	mov	r3, #0
 10045e0:	e5843348 	str	r3, [r4, #840]	; 0x348
 10045e4:	e3a03801 	mov	r3, #65536	; 0x10000
 10045e8:	e5843354 	str	r3, [r4, #852]	; 0x354
 10045ec:	e3a03701 	mov	r3, #262144	; 0x40000
 10045f0:	e584334c 	str	r3, [r4, #844]	; 0x34c
 10045f4:	e5843344 	str	r3, [r4, #836]	; 0x344
 10045f8:	e3a0001e 	mov	r0, #30
 10045fc:	e5943360 	ldr	r3, [r4, #864]	; 0x360
 1004600:	e584e02c 	str	lr, [r4, #44]	; 0x2c
 1004604:	e3833001 	orr	r3, r3, #1
 1004608:	e5843360 	str	r3, [r4, #864]	; 0x360
 100460c:	e3a03048 	mov	r3, #72	; 0x48
 1004610:	e5843000 	str	r3, [r4]
 1004614:	eb000121 	bl	1004aa0 <__GI_sysconf>
 1004618:	e584035c 	str	r0, [r4, #860]	; 0x35c
 100461c:	e8bd87f0 	pop	{r4, r5, r6, r7, r8, r9, sl, pc}

01004620 <malloc_trim>:
 1004620:	e59f302c 	ldr	r3, [pc, #44]	; 1004654 <malloc_trim+0x34>
 1004624:	e59f202c 	ldr	r2, [pc, #44]	; 1004658 <malloc_trim+0x38>
 1004628:	e08f3003 	add	r3, pc, r3
 100462c:	e92d4013 	push	{r0, r1, r4, lr}
 1004630:	e1a04000 	mov	r4, r0
 1004634:	e7933002 	ldr	r3, [r3, r2]
 1004638:	e1a00003 	mov	r0, r3
 100463c:	e58d3004 	str	r3, [sp, #4]
 1004640:	ebffff90 	bl	1004488 <__malloc_consolidate>
 1004644:	e1a00004 	mov	r0, r4
 1004648:	e28dd008 	add	sp, sp, #8
 100464c:	e8bd4010 	pop	{r4, lr}
 1004650:	eaffff5e 	b	10043d0 <malloc+0x7f0>
 1004654:	000199d0 	.word	0x000199d0
 1004658:	00000048 	.word	0x00000048

0100465c <free>:
 100465c:	e92d40f0 	push	{r4, r5, r6, r7, lr}
 1004660:	e2505000 	subs	r5, r0, #0
 1004664:	e59f61d4 	ldr	r6, [pc, #468]	; 1004840 <free+0x1e4>
 1004668:	e24dd01c 	sub	sp, sp, #28
 100466c:	e08f6006 	add	r6, pc, r6
 1004670:	0a00001e 	beq	10046f0 <free+0x94>
 1004674:	e59f31c8 	ldr	r3, [pc, #456]	; 1004844 <free+0x1e8>
 1004678:	e28d4008 	add	r4, sp, #8
 100467c:	e1a00004 	mov	r0, r4
 1004680:	e7967003 	ldr	r7, [r6, r3]
 1004684:	e59f31bc 	ldr	r3, [pc, #444]	; 1004848 <free+0x1ec>
 1004688:	e1a02007 	mov	r2, r7
 100468c:	e7963003 	ldr	r3, [r6, r3]
 1004690:	e1a01003 	mov	r1, r3
 1004694:	e58d3004 	str	r3, [sp, #4]
 1004698:	ebffefcd 	bl	10005d4 <_pthread_cleanup_push_defer>
 100469c:	e1a00007 	mov	r0, r7
 10046a0:	ebffefc7 	bl	10005c4 <__pthread_mutex_lock>
 10046a4:	e59f31a0 	ldr	r3, [pc, #416]	; 100484c <free+0x1f0>
 10046a8:	e5150004 	ldr	r0, [r5, #-4]
 10046ac:	e245e008 	sub	lr, r5, #8
 10046b0:	e7966003 	ldr	r6, [r6, r3]
 10046b4:	e3c01003 	bic	r1, r0, #3
 10046b8:	e5962000 	ldr	r2, [r6]
 10046bc:	e1520001 	cmp	r2, r1
 10046c0:	3a00000c 	bcc	10046f8 <free+0x9c>
 10046c4:	e1a011a1 	lsr	r1, r1, #3
 10046c8:	e3822003 	orr	r2, r2, #3
 10046cc:	e2411002 	sub	r1, r1, #2
 10046d0:	e5862000 	str	r2, [r6]
 10046d4:	e0861101 	add	r1, r6, r1, lsl #2
 10046d8:	e5913004 	ldr	r3, [r1, #4]
 10046dc:	e5853000 	str	r3, [r5]
 10046e0:	e581e004 	str	lr, [r1, #4]
 10046e4:	e3a01001 	mov	r1, #1
 10046e8:	e1a00004 	mov	r0, r4
 10046ec:	ebffefba 	bl	10005dc <_pthread_cleanup_pop_restore>
 10046f0:	e28dd01c 	add	sp, sp, #28
 10046f4:	e8bd80f0 	pop	{r4, r5, r6, r7, pc}
 10046f8:	e3100002 	tst	r0, #2
 10046fc:	1a000044 	bne	1004814 <free+0x1b8>
 1004700:	e3823001 	orr	r3, r2, #1
 1004704:	e5863000 	str	r3, [r6]
 1004708:	e08e3001 	add	r3, lr, r1
 100470c:	e3100001 	tst	r0, #1
 1004710:	e593c004 	ldr	ip, [r3, #4]
 1004714:	e3ccc003 	bic	ip, ip, #3
 1004718:	1a00000d 	bne	1004754 <free+0xf8>
 100471c:	e5150008 	ldr	r0, [r5, #-8]
 1004720:	e04ee000 	sub	lr, lr, r0
 1004724:	e0811000 	add	r1, r1, r0
 1004728:	e59e5008 	ldr	r5, [lr, #8]
 100472c:	e59e000c 	ldr	r0, [lr, #12]
 1004730:	e595700c 	ldr	r7, [r5, #12]
 1004734:	e157000e 	cmp	r7, lr
 1004738:	0a000000 	beq	1004740 <free+0xe4>
 100473c:	ebffef07 	bl	1000360 <__GI_abort>
 1004740:	e5907008 	ldr	r7, [r0, #8]
 1004744:	e157000e 	cmp	r7, lr
 1004748:	1afffffb 	bne	100473c <free+0xe0>
 100474c:	e585000c 	str	r0, [r5, #12]
 1004750:	e5805008 	str	r5, [r0, #8]
 1004754:	e596002c 	ldr	r0, [r6, #44]	; 0x2c
 1004758:	e1500003 	cmp	r0, r3
 100475c:	0a000027 	beq	1004800 <free+0x1a4>
 1004760:	e083000c 	add	r0, r3, ip
 1004764:	e5900004 	ldr	r0, [r0, #4]
 1004768:	e583c004 	str	ip, [r3, #4]
 100476c:	e3100001 	tst	r0, #1
 1004770:	1a00000a 	bne	10047a0 <free+0x144>
 1004774:	e5935008 	ldr	r5, [r3, #8]
 1004778:	e593000c 	ldr	r0, [r3, #12]
 100477c:	e595700c 	ldr	r7, [r5, #12]
 1004780:	e1570003 	cmp	r7, r3
 1004784:	1affffec 	bne	100473c <free+0xe0>
 1004788:	e5907008 	ldr	r7, [r0, #8]
 100478c:	e1570003 	cmp	r7, r3
 1004790:	1affffe9 	bne	100473c <free+0xe0>
 1004794:	e081100c 	add	r1, r1, ip
 1004798:	e585000c 	str	r0, [r5, #12]
 100479c:	e5805008 	str	r5, [r0, #8]
 10047a0:	e596303c 	ldr	r3, [r6, #60]	; 0x3c
 10047a4:	e2860034 	add	r0, r6, #52	; 0x34
 10047a8:	e58e000c 	str	r0, [lr, #12]
 10047ac:	e58e3008 	str	r3, [lr, #8]
 10047b0:	e586e03c 	str	lr, [r6, #60]	; 0x3c
 10047b4:	e583e00c 	str	lr, [r3, #12]
 10047b8:	e3813001 	orr	r3, r1, #1
 10047bc:	e58e3004 	str	r3, [lr, #4]
 10047c0:	e78e1001 	str	r1, [lr, r1]
 10047c4:	e3510802 	cmp	r1, #131072	; 0x20000
 10047c8:	3affffc5 	bcc	10046e4 <free+0x88>
 10047cc:	e3120002 	tst	r2, #2
 10047d0:	0a000001 	beq	10047dc <free+0x180>
 10047d4:	e1a00006 	mov	r0, r6
 10047d8:	ebffff2a 	bl	1004488 <__malloc_consolidate>
 10047dc:	e596302c 	ldr	r3, [r6, #44]	; 0x2c
 10047e0:	e5962344 	ldr	r2, [r6, #836]	; 0x344
 10047e4:	e5933004 	ldr	r3, [r3, #4]
 10047e8:	e3c33003 	bic	r3, r3, #3
 10047ec:	e1530002 	cmp	r3, r2
 10047f0:	3affffbb 	bcc	10046e4 <free+0x88>
 10047f4:	e5960348 	ldr	r0, [r6, #840]	; 0x348
 10047f8:	ebfffef4 	bl	10043d0 <malloc+0x7f0>
 10047fc:	eaffffb8 	b	10046e4 <free+0x88>
 1004800:	e081100c 	add	r1, r1, ip
 1004804:	e3813001 	orr	r3, r1, #1
 1004808:	e58e3004 	str	r3, [lr, #4]
 100480c:	e586e02c 	str	lr, [r6, #44]	; 0x2c
 1004810:	eaffffeb 	b	10047c4 <free+0x168>
 1004814:	e5963350 	ldr	r3, [r6, #848]	; 0x350
 1004818:	e5150008 	ldr	r0, [r5, #-8]
 100481c:	e2433001 	sub	r3, r3, #1
 1004820:	e5863350 	str	r3, [r6, #848]	; 0x350
 1004824:	e5963364 	ldr	r3, [r6, #868]	; 0x364
 1004828:	e0811000 	add	r1, r1, r0
 100482c:	e04e0000 	sub	r0, lr, r0
 1004830:	e0433001 	sub	r3, r3, r1
 1004834:	e5863364 	str	r3, [r6, #868]	; 0x364
 1004838:	eb000458 	bl	10059a0 <__GI_munmap>
 100483c:	eaffffa8 	b	10046e4 <free+0x88>
 1004840:	0001998c 	.word	0x0001998c
 1004844:	0000007c 	.word	0x0000007c
 1004848:	0000004c 	.word	0x0000004c
 100484c:	00000048 	.word	0x00000048

01004850 <__GI_getenv>:
 1004850:	e59f3068 	ldr	r3, [pc, #104]	; 10048c0 <__GI_getenv+0x70>
 1004854:	e59f2068 	ldr	r2, [pc, #104]	; 10048c4 <__GI_getenv+0x74>
 1004858:	e08f3003 	add	r3, pc, r3
 100485c:	e92d41f0 	push	{r4, r5, r6, r7, r8, lr}
 1004860:	e7933002 	ldr	r3, [r3, r2]
 1004864:	e5934000 	ldr	r4, [r3]
 1004868:	e3540000 	cmp	r4, #0
 100486c:	0a000011 	beq	10048b8 <__GI_getenv+0x68>
 1004870:	e1a06000 	mov	r6, r0
 1004874:	ebfffadd 	bl	10033f0 <__GI_strlen>
 1004878:	e2447004 	sub	r7, r4, #4
 100487c:	e1a05000 	mov	r5, r0
 1004880:	e5b74004 	ldr	r4, [r7, #4]!
 1004884:	e3540000 	cmp	r4, #0
 1004888:	0a00000a 	beq	10048b8 <__GI_getenv+0x68>
 100488c:	e1a02005 	mov	r2, r5
 1004890:	e1a01004 	mov	r1, r4
 1004894:	e1a00006 	mov	r0, r6
 1004898:	eb001084 	bl	1008ab0 <__GI_memcmp>
 100489c:	e3500000 	cmp	r0, #0
 10048a0:	1afffff6 	bne	1004880 <__GI_getenv+0x30>
 10048a4:	e7d43005 	ldrb	r3, [r4, r5]
 10048a8:	e353003d 	cmp	r3, #61	; 0x3d
 10048ac:	1afffff3 	bne	1004880 <__GI_getenv+0x30>
 10048b0:	e2855001 	add	r5, r5, #1
 10048b4:	e0844005 	add	r4, r4, r5
 10048b8:	e1a00004 	mov	r0, r4
 10048bc:	e8bd81f0 	pop	{r4, r5, r6, r7, r8, pc}
 10048c0:	000197a0 	.word	0x000197a0
 10048c4:	0000003c 	.word	0x0000003c

010048c8 <__GI_exit>:
 10048c8:	e92d40bf 	push	{r0, r1, r2, r3, r4, r5, r7, lr}
 10048cc:	e28d6008 	add	r6, sp, #8
 10048d0:	e59f507c 	ldr	r5, [pc, #124]	; 1004954 <__GI_exit+0x8c>
 10048d4:	e1a04000 	mov	r4, r0
 10048d8:	e59f3078 	ldr	r3, [pc, #120]	; 1004958 <__GI_exit+0x90>
 10048dc:	e1a00006 	mov	r0, r6
 10048e0:	e08f5005 	add	r5, pc, r5
 10048e4:	e7957003 	ldr	r7, [r5, r3]
 10048e8:	e59f306c 	ldr	r3, [pc, #108]	; 100495c <__GI_exit+0x94>
 10048ec:	e1a02007 	mov	r2, r7
 10048f0:	e7953003 	ldr	r3, [r5, r3]
 10048f4:	e1a01003 	mov	r1, r3
 10048f8:	e58d3004 	str	r3, [sp, #4]
 10048fc:	ebffef34 	bl	10005d4 <_pthread_cleanup_push_defer>
 1004900:	e1a00007 	mov	r0, r7
 1004904:	ebffef2e 	bl	10005c4 <__pthread_mutex_lock>
 1004908:	e59f3050 	ldr	r3, [pc, #80]	; 1004960 <__GI_exit+0x98>
 100490c:	e79f2003 	ldr	r2, [pc, r3]
 1004910:	e1a03002 	mov	r3, r2
 1004914:	e3530000 	cmp	r3, #0
 1004918:	0a000001 	beq	1004924 <__GI_exit+0x5c>
 100491c:	e1a00004 	mov	r0, r4
 1004920:	e12fff32 	blx	r2
 1004924:	e3a01001 	mov	r1, #1
 1004928:	e1a00006 	mov	r0, r6
 100492c:	ebffef2a 	bl	10005dc <_pthread_cleanup_pop_restore>
 1004930:	ebffef68 	bl	10006d8 <__GI___uClibc_fini>
 1004934:	e59f3028 	ldr	r3, [pc, #40]	; 1004964 <__GI_exit+0x9c>
 1004938:	e7953003 	ldr	r3, [r5, r3]
 100493c:	e58d3004 	str	r3, [sp, #4]
 1004940:	e3530000 	cmp	r3, #0
 1004944:	0a000000 	beq	100494c <__GI_exit+0x84>
 1004948:	eb00094b 	bl	1006e7c <_stdio_term>
 100494c:	e1a00004 	mov	r0, r4
 1004950:	ebfff103 	bl	1000d64 <__GI__exit>
 1004954:	00019718 	.word	0x00019718
 1004958:	0000009c 	.word	0x0000009c
 100495c:	0000004c 	.word	0x0000004c
 1004960:	00019a30 	.word	0x00019a30
 1004964:	00000098 	.word	0x00000098
 1004968:	e92d41f3 	push	{r0, r1, r4, r5, r6, r7, r8, lr}
 100496c:	e3a04000 	mov	r4, #0
 1004970:	e59f010c 	ldr	r0, [pc, #268]	; 1004a84 <__GI_exit+0x1bc>
 1004974:	e58d4004 	str	r4, [sp, #4]
 1004978:	e08f0000 	add	r0, pc, r0
 100497c:	eb000516 	bl	1005ddc <__GI_config_open>
 1004980:	e2505000 	subs	r5, r0, #0
 1004984:	1a00002a 	bne	1004a34 <__GI_exit+0x16c>
 1004988:	e59f00f8 	ldr	r0, [pc, #248]	; 1004a88 <__GI_exit+0x1c0>
 100498c:	e08f0000 	add	r0, pc, r0
 1004990:	eb000511 	bl	1005ddc <__GI_config_open>
 1004994:	e2505000 	subs	r5, r0, #0
 1004998:	01a04005 	moveq	r4, r5
 100499c:	0a00001d 	beq	1004a18 <__GI_exit+0x150>
 10049a0:	e59f70e4 	ldr	r7, [pc, #228]	; 1004a8c <__GI_exit+0x1c4>
 10049a4:	e59f80e4 	ldr	r8, [pc, #228]	; 1004a90 <__GI_exit+0x1c8>
 10049a8:	e59f60e4 	ldr	r6, [pc, #228]	; 1004a94 <__GI_exit+0x1cc>
 10049ac:	e08f7007 	add	r7, pc, r7
 10049b0:	e08f8008 	add	r8, pc, r8
 10049b4:	ea00002a 	b	1004a64 <__GI_exit+0x19c>
 10049b8:	e59d3004 	ldr	r3, [sp, #4]
 10049bc:	e5932000 	ldr	r2, [r3]
 10049c0:	e5d23000 	ldrb	r3, [r2]
 10049c4:	e3530063 	cmp	r3, #99	; 0x63
 10049c8:	1a00000b 	bne	10049fc <__GI_exit+0x134>
 10049cc:	e5d23001 	ldrb	r3, [r2, #1]
 10049d0:	e3530070 	cmp	r3, #112	; 0x70
 10049d4:	1a000008 	bne	10049fc <__GI_exit+0x134>
 10049d8:	e5d23002 	ldrb	r3, [r2, #2]
 10049dc:	e3530075 	cmp	r3, #117	; 0x75
 10049e0:	1a000005 	bne	10049fc <__GI_exit+0x134>
 10049e4:	e5d22003 	ldrb	r2, [r2, #3]
 10049e8:	e5973000 	ldr	r3, [r7]
 10049ec:	e1a02082 	lsl	r2, r2, #1
 10049f0:	e19330b2 	ldrh	r3, [r3, r2]
 10049f4:	e3130008 	tst	r3, #8
 10049f8:	12844001 	addne	r4, r4, #1
 10049fc:	e1a03008 	mov	r3, r8
 1004a00:	e3002102 	movw	r2, #258	; 0x102
 1004a04:	e1a01006 	mov	r1, r6
 1004a08:	e1a00005 	mov	r0, r5
 1004a0c:	eb00050e 	bl	1005e4c <__GI_config_read>
 1004a10:	e3500000 	cmp	r0, #0
 1004a14:	1affffe7 	bne	10049b8 <__GI_exit+0xf0>
 1004a18:	e1a00005 	mov	r0, r5
 1004a1c:	eb0004fd 	bl	1005e18 <__GI_config_close>
 1004a20:	e3540000 	cmp	r4, #0
 1004a24:	11a00004 	movne	r0, r4
 1004a28:	03a00001 	moveq	r0, #1
 1004a2c:	e28dd008 	add	sp, sp, #8
 1004a30:	e8bd81f0 	pop	{r4, r5, r6, r7, r8, pc}
 1004a34:	e59f805c 	ldr	r8, [pc, #92]	; 1004a98 <__GI_exit+0x1d0>
 1004a38:	e28d6004 	add	r6, sp, #4
 1004a3c:	e59f7058 	ldr	r7, [pc, #88]	; 1004a9c <__GI_exit+0x1d4>
 1004a40:	e08f8008 	add	r8, pc, r8
 1004a44:	e08f7007 	add	r7, pc, r7
 1004a48:	eaffffeb 	b	10049fc <__GI_exit+0x134>
 1004a4c:	e59d3004 	ldr	r3, [sp, #4]
 1004a50:	e1a00008 	mov	r0, r8
 1004a54:	e5931000 	ldr	r1, [r3]
 1004a58:	ebfffa5c 	bl	10033d0 <__GI_strcmp>
 1004a5c:	e3500000 	cmp	r0, #0
 1004a60:	02844001 	addeq	r4, r4, #1
 1004a64:	e28d1004 	add	r1, sp, #4
 1004a68:	e1a03007 	mov	r3, r7
 1004a6c:	e1a02006 	mov	r2, r6
 1004a70:	e1a00005 	mov	r0, r5
 1004a74:	eb0004f4 	bl	1005e4c <__GI_config_read>
 1004a78:	e3500000 	cmp	r0, #0
 1004a7c:	1afffff2 	bne	1004a4c <__GI_exit+0x184>
 1004a80:	eaffffe4 	b	1004a18 <__GI_exit+0x150>
 1004a84:	00008985 	.word	0x00008985
 1004a88:	0000897c 	.word	0x0000897c
 1004a8c:	0000898c 	.word	0x0000898c
 1004a90:	00008966 	.word	0x00008966
 1004a94:	00070202 	.word	0x00070202
 1004a98:	00007bf4 	.word	0x00007bf4
 1004a9c:	00019720 	.word	0x00019720

01004aa0 <__GI_sysconf>:
 1004aa0:	e92d41f3 	push	{r0, r1, r4, r5, r6, r7, r8, lr}
 1004aa4:	e1a04000 	mov	r4, r0
 1004aa8:	e35000f0 	cmp	r0, #240	; 0xf0
 1004aac:	908ff100 	addls	pc, pc, r0, lsl #2
 1004ab0:	ea0000f4 	b	1004e88 <__GI_sysconf+0x3e8>
 1004ab4:	ea0000fa 	b	1004ea4 <__GI_sysconf+0x404>
 1004ab8:	ea0000f7 	b	1004e9c <__GI_sysconf+0x3fc>
 1004abc:	ea0000ed 	b	1004e78 <__GI_sysconf+0x3d8>
 1004ac0:	ea000102 	b	1004ed0 <__GI_sysconf+0x430>
 1004ac4:	ea000103 	b	1004ed8 <__GI_sysconf+0x438>
 1004ac8:	ea00014b 	b	1004ffc <__GI_sysconf+0x55c>
 1004acc:	ea0000ea 	b	1004e7c <__GI_sysconf+0x3dc>
 1004ad0:	ea00015f 	b	1005054 <__GI_sysconf+0x5b4>
 1004ad4:	ea00015e 	b	1005054 <__GI_sysconf+0x5b4>
 1004ad8:	ea00015d 	b	1005054 <__GI_sysconf+0x5b4>
 1004adc:	ea00015c 	b	1005054 <__GI_sysconf+0x5b4>
 1004ae0:	ea00015b 	b	1005054 <__GI_sysconf+0x5b4>
 1004ae4:	ea00015a 	b	1005054 <__GI_sysconf+0x5b4>
 1004ae8:	ea000159 	b	1005054 <__GI_sysconf+0x5b4>
 1004aec:	ea000158 	b	1005054 <__GI_sysconf+0x5b4>
 1004af0:	ea000157 	b	1005054 <__GI_sysconf+0x5b4>
 1004af4:	ea000156 	b	1005054 <__GI_sysconf+0x5b4>
 1004af8:	ea000155 	b	1005054 <__GI_sysconf+0x5b4>
 1004afc:	ea000154 	b	1005054 <__GI_sysconf+0x5b4>
 1004b00:	ea000153 	b	1005054 <__GI_sysconf+0x5b4>
 1004b04:	ea000152 	b	1005054 <__GI_sysconf+0x5b4>
 1004b08:	ea000151 	b	1005054 <__GI_sysconf+0x5b4>
 1004b0c:	ea000150 	b	1005054 <__GI_sysconf+0x5b4>
 1004b10:	ea0000e1 	b	1004e9c <__GI_sysconf+0x3fc>
 1004b14:	ea0000e0 	b	1004e9c <__GI_sysconf+0x3fc>
 1004b18:	ea000139 	b	1005004 <__GI_sysconf+0x564>
 1004b1c:	ea00014a 	b	100504c <__GI_sysconf+0x5ac>
 1004b20:	ea0000dd 	b	1004e9c <__GI_sysconf+0x3fc>
 1004b24:	ea0000f1 	b	1004ef0 <__GI_sysconf+0x450>
 1004b28:	ea0000f6 	b	1004f08 <__GI_sysconf+0x468>
 1004b2c:	ea0000ec 	b	1004ee4 <__GI_sysconf+0x444>
 1004b30:	ea00012f 	b	1004ff4 <__GI_sysconf+0x554>
 1004b34:	ea0000d8 	b	1004e9c <__GI_sysconf+0x3fc>
 1004b38:	ea000143 	b	100504c <__GI_sysconf+0x5ac>
 1004b3c:	ea0000d6 	b	1004e9c <__GI_sysconf+0x3fc>
 1004b40:	ea0000d5 	b	1004e9c <__GI_sysconf+0x3fc>
 1004b44:	ea0000eb 	b	1004ef8 <__GI_sysconf+0x458>
 1004b48:	ea00013d 	b	1005044 <__GI_sysconf+0x5a4>
 1004b4c:	ea0000e9 	b	1004ef8 <__GI_sysconf+0x458>
 1004b50:	ea0000ea 	b	1004f00 <__GI_sysconf+0x460>
 1004b54:	ea000134 	b	100502c <__GI_sysconf+0x58c>
 1004b58:	ea0000cf 	b	1004e9c <__GI_sysconf+0x3fc>
 1004b5c:	ea000124 	b	1004ff4 <__GI_sysconf+0x554>
 1004b60:	ea000137 	b	1005044 <__GI_sysconf+0x5a4>
 1004b64:	ea000128 	b	100500c <__GI_sysconf+0x56c>
 1004b68:	ea000135 	b	1005044 <__GI_sysconf+0x5a4>
 1004b6c:	ea0000e5 	b	1004f08 <__GI_sysconf+0x468>
 1004b70:	ea0000e4 	b	1004f08 <__GI_sysconf+0x468>
 1004b74:	ea0000e3 	b	1004f08 <__GI_sysconf+0x468>
 1004b78:	ea0000c7 	b	1004e9c <__GI_sysconf+0x3fc>
 1004b7c:	ea0000c6 	b	1004e9c <__GI_sysconf+0x3fc>
 1004b80:	ea0000e0 	b	1004f08 <__GI_sysconf+0x468>
 1004b84:	ea0000c4 	b	1004e9c <__GI_sysconf+0x3fc>
 1004b88:	ea0000c3 	b	1004e9c <__GI_sysconf+0x3fc>
 1004b8c:	ea0000c2 	b	1004e9c <__GI_sysconf+0x3fc>
 1004b90:	ea0000c1 	b	1004e9c <__GI_sysconf+0x3fc>
 1004b94:	ea0000c0 	b	1004e9c <__GI_sysconf+0x3fc>
 1004b98:	ea0000bf 	b	1004e9c <__GI_sysconf+0x3fc>
 1004b9c:	ea0000be 	b	1004e9c <__GI_sysconf+0x3fc>
 1004ba0:	ea0000bd 	b	1004e9c <__GI_sysconf+0x3fc>
 1004ba4:	ea0000dd 	b	1004f20 <__GI_sysconf+0x480>
 1004ba8:	ea0000bb 	b	1004e9c <__GI_sysconf+0x3fc>
 1004bac:	ea0000ba 	b	1004e9c <__GI_sysconf+0x3fc>
 1004bb0:	ea0000b9 	b	1004e9c <__GI_sysconf+0x3fc>
 1004bb4:	ea0000b8 	b	1004e9c <__GI_sysconf+0x3fc>
 1004bb8:	ea0000b7 	b	1004e9c <__GI_sysconf+0x3fc>
 1004bbc:	ea0000b6 	b	1004e9c <__GI_sysconf+0x3fc>
 1004bc0:	ea000123 	b	1005054 <__GI_sysconf+0x5b4>
 1004bc4:	ea000122 	b	1005054 <__GI_sysconf+0x5b4>
 1004bc8:	ea0000d2 	b	1004f18 <__GI_sysconf+0x478>
 1004bcc:	ea0000d1 	b	1004f18 <__GI_sysconf+0x478>
 1004bd0:	ea0000d0 	b	1004f18 <__GI_sysconf+0x478>
 1004bd4:	ea000106 	b	1004ff4 <__GI_sysconf+0x554>
 1004bd8:	ea0000fd 	b	1004fd4 <__GI_sysconf+0x534>
 1004bdc:	ea0000cf 	b	1004f20 <__GI_sysconf+0x480>
 1004be0:	ea0000d0 	b	1004f28 <__GI_sysconf+0x488>
 1004be4:	ea0000ac 	b	1004e9c <__GI_sysconf+0x3fc>
 1004be8:	ea000119 	b	1005054 <__GI_sysconf+0x5b4>
 1004bec:	ea000118 	b	1005054 <__GI_sysconf+0x5b4>
 1004bf0:	ea000117 	b	1005054 <__GI_sysconf+0x5b4>
 1004bf4:	ea000116 	b	1005054 <__GI_sysconf+0x5b4>
 1004bf8:	ea000115 	b	1005054 <__GI_sysconf+0x5b4>
 1004bfc:	ea000114 	b	1005054 <__GI_sysconf+0x5b4>
 1004c00:	ea0000ca 	b	1004f30 <__GI_sysconf+0x490>
 1004c04:	ea0000ec 	b	1004fbc <__GI_sysconf+0x51c>
 1004c08:	ea0000a3 	b	1004e9c <__GI_sysconf+0x3fc>
 1004c0c:	ea0000a2 	b	1004e9c <__GI_sysconf+0x3fc>
 1004c10:	ea00010d 	b	100504c <__GI_sysconf+0x5ac>
 1004c14:	ea0000ea 	b	1004fc4 <__GI_sysconf+0x524>
 1004c18:	ea0000eb 	b	1004fcc <__GI_sysconf+0x52c>
 1004c1c:	ea0000ec 	b	1004fd4 <__GI_sysconf+0x534>
 1004c20:	ea00010b 	b	1005054 <__GI_sysconf+0x5b4>
 1004c24:	ea00010a 	b	1005054 <__GI_sysconf+0x5b4>
 1004c28:	ea000109 	b	1005054 <__GI_sysconf+0x5b4>
 1004c2c:	ea000108 	b	1005054 <__GI_sysconf+0x5b4>
 1004c30:	ea0000b6 	b	1004f10 <__GI_sysconf+0x470>
 1004c34:	ea000098 	b	1004e9c <__GI_sysconf+0x3fc>
 1004c38:	ea000097 	b	1004e9c <__GI_sysconf+0x3fc>
 1004c3c:	ea000104 	b	1005054 <__GI_sysconf+0x5b4>
 1004c40:	ea000103 	b	1005054 <__GI_sysconf+0x5b4>
 1004c44:	ea000102 	b	1005054 <__GI_sysconf+0x5b4>
 1004c48:	ea0000e3 	b	1004fdc <__GI_sysconf+0x53c>
 1004c4c:	ea0000f6 	b	100502c <__GI_sysconf+0x58c>
 1004c50:	ea0000e3 	b	1004fe4 <__GI_sysconf+0x544>
 1004c54:	ea0000fc 	b	100504c <__GI_sysconf+0x5ac>
 1004c58:	ea0000e3 	b	1004fec <__GI_sysconf+0x54c>
 1004c5c:	ea0000e4 	b	1004ff4 <__GI_sysconf+0x554>
 1004c60:	ea0000e3 	b	1004ff4 <__GI_sysconf+0x554>
 1004c64:	ea0000e4 	b	1004ffc <__GI_sysconf+0x55c>
 1004c68:	ea0000e5 	b	1005004 <__GI_sysconf+0x564>
 1004c6c:	ea0000e6 	b	100500c <__GI_sysconf+0x56c>
 1004c70:	ea0000e7 	b	1005014 <__GI_sysconf+0x574>
 1004c74:	ea0000e8 	b	100501c <__GI_sysconf+0x57c>
 1004c78:	ea0000e3 	b	100500c <__GI_sysconf+0x56c>
 1004c7c:	ea0000e8 	b	1005024 <__GI_sysconf+0x584>
 1004c80:	ea0000e9 	b	100502c <__GI_sysconf+0x58c>
 1004c84:	ea000084 	b	1004e9c <__GI_sysconf+0x3fc>
 1004c88:	ea000083 	b	1004e9c <__GI_sysconf+0x3fc>
 1004c8c:	ea0000e8 	b	1005034 <__GI_sysconf+0x594>
 1004c90:	ea0000e9 	b	100503c <__GI_sysconf+0x59c>
 1004c94:	ea0000ea 	b	1005044 <__GI_sysconf+0x5a4>
 1004c98:	ea0000eb 	b	100504c <__GI_sysconf+0x5ac>
 1004c9c:	ea0000ea 	b	100504c <__GI_sysconf+0x5ac>
 1004ca0:	ea0000e9 	b	100504c <__GI_sysconf+0x5ac>
 1004ca4:	ea0000e8 	b	100504c <__GI_sysconf+0x5ac>
 1004ca8:	ea0000e9 	b	1005054 <__GI_sysconf+0x5b4>
 1004cac:	ea0000e8 	b	1005054 <__GI_sysconf+0x5b4>
 1004cb0:	ea000079 	b	1004e9c <__GI_sysconf+0x3fc>
 1004cb4:	ea000078 	b	1004e9c <__GI_sysconf+0x3fc>
 1004cb8:	ea0000e5 	b	1005054 <__GI_sysconf+0x5b4>
 1004cbc:	ea0000e4 	b	1005054 <__GI_sysconf+0x5b4>
 1004cc0:	ea0000e3 	b	1005054 <__GI_sysconf+0x5b4>
 1004cc4:	ea00006f 	b	1004e88 <__GI_sysconf+0x3e8>
 1004cc8:	ea00006e 	b	1004e88 <__GI_sysconf+0x3e8>
 1004ccc:	ea00006d 	b	1004e88 <__GI_sysconf+0x3e8>
 1004cd0:	ea00006c 	b	1004e88 <__GI_sysconf+0x3e8>
 1004cd4:	ea00006b 	b	1004e88 <__GI_sysconf+0x3e8>
 1004cd8:	ea00006a 	b	1004e88 <__GI_sysconf+0x3e8>
 1004cdc:	ea000069 	b	1004e88 <__GI_sysconf+0x3e8>
 1004ce0:	ea00006d 	b	1004e9c <__GI_sysconf+0x3fc>
 1004ce4:	ea000067 	b	1004e88 <__GI_sysconf+0x3e8>
 1004ce8:	ea000066 	b	1004e88 <__GI_sysconf+0x3e8>
 1004cec:	ea000065 	b	1004e88 <__GI_sysconf+0x3e8>
 1004cf0:	ea000064 	b	1004e88 <__GI_sysconf+0x3e8>
 1004cf4:	ea000063 	b	1004e88 <__GI_sysconf+0x3e8>
 1004cf8:	ea000062 	b	1004e88 <__GI_sysconf+0x3e8>
 1004cfc:	ea000061 	b	1004e88 <__GI_sysconf+0x3e8>
 1004d00:	ea000060 	b	1004e88 <__GI_sysconf+0x3e8>
 1004d04:	ea00005f 	b	1004e88 <__GI_sysconf+0x3e8>
 1004d08:	ea0000d3 	b	100505c <__GI_sysconf+0x5bc>
 1004d0c:	ea00005d 	b	1004e88 <__GI_sysconf+0x3e8>
 1004d10:	ea00005c 	b	1004e88 <__GI_sysconf+0x3e8>
 1004d14:	ea00005b 	b	1004e88 <__GI_sysconf+0x3e8>
 1004d18:	ea00005a 	b	1004e88 <__GI_sysconf+0x3e8>
 1004d1c:	ea000059 	b	1004e88 <__GI_sysconf+0x3e8>
 1004d20:	ea000058 	b	1004e88 <__GI_sysconf+0x3e8>
 1004d24:	ea000057 	b	1004e88 <__GI_sysconf+0x3e8>
 1004d28:	ea000056 	b	1004e88 <__GI_sysconf+0x3e8>
 1004d2c:	ea000055 	b	1004e88 <__GI_sysconf+0x3e8>
 1004d30:	ea000054 	b	1004e88 <__GI_sysconf+0x3e8>
 1004d34:	ea000053 	b	1004e88 <__GI_sysconf+0x3e8>
 1004d38:	ea000052 	b	1004e88 <__GI_sysconf+0x3e8>
 1004d3c:	ea000051 	b	1004e88 <__GI_sysconf+0x3e8>
 1004d40:	ea000050 	b	1004e88 <__GI_sysconf+0x3e8>
 1004d44:	ea00004f 	b	1004e88 <__GI_sysconf+0x3e8>
 1004d48:	ea00004e 	b	1004e88 <__GI_sysconf+0x3e8>
 1004d4c:	ea00004d 	b	1004e88 <__GI_sysconf+0x3e8>
 1004d50:	ea00004c 	b	1004e88 <__GI_sysconf+0x3e8>
 1004d54:	ea00004b 	b	1004e88 <__GI_sysconf+0x3e8>
 1004d58:	ea00004a 	b	1004e88 <__GI_sysconf+0x3e8>
 1004d5c:	ea000049 	b	1004e88 <__GI_sysconf+0x3e8>
 1004d60:	ea000048 	b	1004e88 <__GI_sysconf+0x3e8>
 1004d64:	ea000047 	b	1004e88 <__GI_sysconf+0x3e8>
 1004d68:	ea000046 	b	1004e88 <__GI_sysconf+0x3e8>
 1004d6c:	ea000045 	b	1004e88 <__GI_sysconf+0x3e8>
 1004d70:	ea000044 	b	1004e88 <__GI_sysconf+0x3e8>
 1004d74:	ea000043 	b	1004e88 <__GI_sysconf+0x3e8>
 1004d78:	ea000042 	b	1004e88 <__GI_sysconf+0x3e8>
 1004d7c:	ea000041 	b	1004e88 <__GI_sysconf+0x3e8>
 1004d80:	ea000040 	b	1004e88 <__GI_sysconf+0x3e8>
 1004d84:	ea00003f 	b	1004e88 <__GI_sysconf+0x3e8>
 1004d88:	ea00003e 	b	1004e88 <__GI_sysconf+0x3e8>
 1004d8c:	ea00003d 	b	1004e88 <__GI_sysconf+0x3e8>
 1004d90:	ea00003c 	b	1004e88 <__GI_sysconf+0x3e8>
 1004d94:	ea00003b 	b	1004e88 <__GI_sysconf+0x3e8>
 1004d98:	ea00003a 	b	1004e88 <__GI_sysconf+0x3e8>
 1004d9c:	ea000039 	b	1004e88 <__GI_sysconf+0x3e8>
 1004da0:	ea000038 	b	1004e88 <__GI_sysconf+0x3e8>
 1004da4:	ea000037 	b	1004e88 <__GI_sysconf+0x3e8>
 1004da8:	ea000036 	b	1004e88 <__GI_sysconf+0x3e8>
 1004dac:	ea000035 	b	1004e88 <__GI_sysconf+0x3e8>
 1004db0:	ea000034 	b	1004e88 <__GI_sysconf+0x3e8>
 1004db4:	ea000033 	b	1004e88 <__GI_sysconf+0x3e8>
 1004db8:	ea000032 	b	1004e88 <__GI_sysconf+0x3e8>
 1004dbc:	ea000031 	b	1004e88 <__GI_sysconf+0x3e8>
 1004dc0:	ea000030 	b	1004e88 <__GI_sysconf+0x3e8>
 1004dc4:	ea00002f 	b	1004e88 <__GI_sysconf+0x3e8>
 1004dc8:	ea00002e 	b	1004e88 <__GI_sysconf+0x3e8>
 1004dcc:	ea00002d 	b	1004e88 <__GI_sysconf+0x3e8>
 1004dd0:	ea00002c 	b	1004e88 <__GI_sysconf+0x3e8>
 1004dd4:	ea00002b 	b	1004e88 <__GI_sysconf+0x3e8>
 1004dd8:	ea00002a 	b	1004e88 <__GI_sysconf+0x3e8>
 1004ddc:	ea000029 	b	1004e88 <__GI_sysconf+0x3e8>
 1004de0:	ea000028 	b	1004e88 <__GI_sysconf+0x3e8>
 1004de4:	ea000027 	b	1004e88 <__GI_sysconf+0x3e8>
 1004de8:	ea000026 	b	1004e88 <__GI_sysconf+0x3e8>
 1004dec:	ea000025 	b	1004e88 <__GI_sysconf+0x3e8>
 1004df0:	ea000024 	b	1004e88 <__GI_sysconf+0x3e8>
 1004df4:	ea000023 	b	1004e88 <__GI_sysconf+0x3e8>
 1004df8:	ea000022 	b	1004e88 <__GI_sysconf+0x3e8>
 1004dfc:	ea000021 	b	1004e88 <__GI_sysconf+0x3e8>
 1004e00:	ea000020 	b	1004e88 <__GI_sysconf+0x3e8>
 1004e04:	ea00001f 	b	1004e88 <__GI_sysconf+0x3e8>
 1004e08:	ea00001e 	b	1004e88 <__GI_sysconf+0x3e8>
 1004e0c:	ea00001d 	b	1004e88 <__GI_sysconf+0x3e8>
 1004e10:	ea00001c 	b	1004e88 <__GI_sysconf+0x3e8>
 1004e14:	ea00001b 	b	1004e88 <__GI_sysconf+0x3e8>
 1004e18:	ea00001a 	b	1004e88 <__GI_sysconf+0x3e8>
 1004e1c:	ea000019 	b	1004e88 <__GI_sysconf+0x3e8>
 1004e20:	ea000018 	b	1004e88 <__GI_sysconf+0x3e8>
 1004e24:	ea000017 	b	1004e88 <__GI_sysconf+0x3e8>
 1004e28:	ea000016 	b	1004e88 <__GI_sysconf+0x3e8>
 1004e2c:	ea000015 	b	1004e88 <__GI_sysconf+0x3e8>
 1004e30:	ea000014 	b	1004e88 <__GI_sysconf+0x3e8>
 1004e34:	ea000013 	b	1004e88 <__GI_sysconf+0x3e8>
 1004e38:	ea000012 	b	1004e88 <__GI_sysconf+0x3e8>
 1004e3c:	ea000011 	b	1004e88 <__GI_sysconf+0x3e8>
 1004e40:	ea000010 	b	1004e88 <__GI_sysconf+0x3e8>
 1004e44:	ea00000f 	b	1004e88 <__GI_sysconf+0x3e8>
 1004e48:	ea00000e 	b	1004e88 <__GI_sysconf+0x3e8>
 1004e4c:	ea00000d 	b	1004e88 <__GI_sysconf+0x3e8>
 1004e50:	ea00000c 	b	1004e88 <__GI_sysconf+0x3e8>
 1004e54:	ea00000b 	b	1004e88 <__GI_sysconf+0x3e8>
 1004e58:	ea00000a 	b	1004e88 <__GI_sysconf+0x3e8>
 1004e5c:	ea000009 	b	1004e88 <__GI_sysconf+0x3e8>
 1004e60:	ea000008 	b	1004e88 <__GI_sysconf+0x3e8>
 1004e64:	ea000007 	b	1004e88 <__GI_sysconf+0x3e8>
 1004e68:	ea000079 	b	1005054 <__GI_sysconf+0x5b4>
 1004e6c:	ea000078 	b	1005054 <__GI_sysconf+0x5b4>
 1004e70:	ea000009 	b	1004e9c <__GI_sysconf+0x3fc>
 1004e74:	ea000008 	b	1004e9c <__GI_sysconf+0x3fc>
 1004e78:	e3a04064 	mov	r4, #100	; 0x64
 1004e7c:	e1a00004 	mov	r0, r4
 1004e80:	e28dd008 	add	sp, sp, #8
 1004e84:	e8bd81f0 	pop	{r4, r5, r6, r7, r8, pc}
 1004e88:	e59f31f0 	ldr	r3, [pc, #496]	; 1005080 <__GI_sysconf+0x5e0>
 1004e8c:	ee1d2f70 	mrc	15, 0, r2, cr13, cr0, {3}
 1004e90:	e3a01016 	mov	r1, #22
 1004e94:	e79f3003 	ldr	r3, [pc, r3]
 1004e98:	e7821003 	str	r1, [r2, r3]
 1004e9c:	e3e04000 	mvn	r4, #0
 1004ea0:	eafffff5 	b	1004e7c <__GI_sysconf+0x3dc>
 1004ea4:	e1a0100d 	mov	r1, sp
 1004ea8:	e3a00003 	mov	r0, #3
 1004eac:	eb000294 	bl	1005904 <__GI_getrlimit>
 1004eb0:	e3500000 	cmp	r0, #0
 1004eb4:	1a000003 	bne	1004ec8 <__GI_sysconf+0x428>
 1004eb8:	e59d0000 	ldr	r0, [sp]
 1004ebc:	e3500702 	cmp	r0, #524288	; 0x80000
 1004ec0:	21a04120 	lsrcs	r4, r0, #2
 1004ec4:	2affffec 	bcs	1004e7c <__GI_sysconf+0x3dc>
 1004ec8:	e3a04802 	mov	r4, #131072	; 0x20000
 1004ecc:	eaffffea 	b	1004e7c <__GI_sysconf+0x3dc>
 1004ed0:	e3a04801 	mov	r4, #65536	; 0x10000
 1004ed4:	eaffffe8 	b	1004e7c <__GI_sysconf+0x3dc>
 1004ed8:	eb000276 	bl	10058b8 <__GI_getdtablesize>
 1004edc:	e1a04000 	mov	r4, r0
 1004ee0:	eaffffe5 	b	1004e7c <__GI_sysconf+0x3dc>
 1004ee4:	e28dd008 	add	sp, sp, #8
 1004ee8:	e8bd41f0 	pop	{r4, r5, r6, r7, r8, lr}
 1004eec:	ea00027a 	b	10058dc <__GI_getpagesize>
 1004ef0:	e3a04902 	mov	r4, #32768	; 0x8000
 1004ef4:	eaffffe0 	b	1004e7c <__GI_sysconf+0x3dc>
 1004ef8:	e3a04063 	mov	r4, #99	; 0x63
 1004efc:	eaffffde 	b	1004e7c <__GI_sysconf+0x3dc>
 1004f00:	e3a04ffa 	mov	r4, #1000	; 0x3e8
 1004f04:	eaffffdc 	b	1004e7c <__GI_sysconf+0x3dc>
 1004f08:	e59f4174 	ldr	r4, [pc, #372]	; 1005084 <__GI_sysconf+0x5e4>
 1004f0c:	eaffffda 	b	1004e7c <__GI_sysconf+0x3dc>
 1004f10:	e59f4170 	ldr	r4, [pc, #368]	; 1005088 <__GI_sysconf+0x5e8>
 1004f14:	eaffffd8 	b	1004e7c <__GI_sysconf+0x3dc>
 1004f18:	e3a04c01 	mov	r4, #256	; 0x100
 1004f1c:	eaffffd6 	b	1004e7c <__GI_sysconf+0x3dc>
 1004f20:	e3a04b01 	mov	r4, #1024	; 0x400
 1004f24:	eaffffd4 	b	1004e7c <__GI_sysconf+0x3dc>
 1004f28:	e3a04901 	mov	r4, #16384	; 0x4000
 1004f2c:	eaffffd2 	b	1004e7c <__GI_sysconf+0x3dc>
 1004f30:	e59f0154 	ldr	r0, [pc, #340]	; 100508c <__GI_sysconf+0x5ec>
 1004f34:	e08f0000 	add	r0, pc, r0
 1004f38:	eb000345 	bl	1005c54 <__GI_opendir>
 1004f3c:	e2505000 	subs	r5, r0, #0
 1004f40:	1a000017 	bne	1004fa4 <__GI_sysconf+0x504>
 1004f44:	ebfffe87 	bl	1004968 <__GI_exit+0xa0>
 1004f48:	e1a04000 	mov	r4, r0
 1004f4c:	ea000011 	b	1004f98 <__GI_sysconf+0x4f8>
 1004f50:	e1d031b2 	ldrh	r3, [r0, #18]
 1004f54:	e1530006 	cmp	r3, r6
 1004f58:	1a000008 	bne	1004f80 <__GI_sysconf+0x4e0>
 1004f5c:	e1d031b4 	ldrh	r3, [r0, #20]
 1004f60:	e1530007 	cmp	r3, r7
 1004f64:	1a000005 	bne	1004f80 <__GI_sysconf+0x4e0>
 1004f68:	e5d03016 	ldrb	r3, [r0, #22]
 1004f6c:	e5982000 	ldr	r2, [r8]
 1004f70:	e1a03083 	lsl	r3, r3, #1
 1004f74:	e19230b3 	ldrh	r3, [r2, r3]
 1004f78:	e3130008 	tst	r3, #8
 1004f7c:	12844001 	addne	r4, r4, #1
 1004f80:	e1a00005 	mov	r0, r5
 1004f84:	eb000362 	bl	1005d14 <__GI_readdir64>
 1004f88:	e3500000 	cmp	r0, #0
 1004f8c:	1affffef 	bne	1004f50 <__GI_sysconf+0x4b0>
 1004f90:	e1a00005 	mov	r0, r5
 1004f94:	eb0002af 	bl	1005a58 <__GI_closedir>
 1004f98:	e3540000 	cmp	r4, #0
 1004f9c:	03a04001 	moveq	r4, #1
 1004fa0:	eaffffb5 	b	1004e7c <__GI_sysconf+0x3dc>
 1004fa4:	e59f80e4 	ldr	r8, [pc, #228]	; 1005090 <__GI_sysconf+0x5f0>
 1004fa8:	e3a04000 	mov	r4, #0
 1004fac:	e3066304 	movw	r6, #25348	; 0x6304
 1004fb0:	e3077570 	movw	r7, #30064	; 0x7570
 1004fb4:	e08f8008 	add	r8, pc, r8
 1004fb8:	eafffff0 	b	1004f80 <__GI_sysconf+0x4e0>
 1004fbc:	ebfffe69 	bl	1004968 <__GI_exit+0xa0>
 1004fc0:	eaffffc5 	b	1004edc <__GI_sysconf+0x43c>
 1004fc4:	e3a04a01 	mov	r4, #4096	; 0x1000
 1004fc8:	eaffffab 	b	1004e7c <__GI_sysconf+0x3dc>
 1004fcc:	e3a04f7d 	mov	r4, #500	; 0x1f4
 1004fd0:	eaffffa9 	b	1004e7c <__GI_sysconf+0x3dc>
 1004fd4:	e3a04004 	mov	r4, #4
 1004fd8:	eaffffa7 	b	1004e7c <__GI_sysconf+0x3dc>
 1004fdc:	e3a04008 	mov	r4, #8
 1004fe0:	eaffffa5 	b	1004e7c <__GI_sysconf+0x3dc>
 1004fe4:	e3a04000 	mov	r4, #0
 1004fe8:	eaffffa3 	b	1004e7c <__GI_sysconf+0x3dc>
 1004fec:	e3a04102 	mov	r4, #-2147483648	; 0x80000000
 1004ff0:	eaffffa1 	b	1004e7c <__GI_sysconf+0x3dc>
 1004ff4:	e3a04020 	mov	r4, #32
 1004ff8:	eaffff9f 	b	1004e7c <__GI_sysconf+0x3dc>
 1004ffc:	e3a04010 	mov	r4, #16
 1005000:	eaffff9d 	b	1004e7c <__GI_sysconf+0x3dc>
 1005004:	e3a04014 	mov	r4, #20
 1005008:	eaffff9b 	b	1004e7c <__GI_sysconf+0x3dc>
 100500c:	e3074fff 	movw	r4, #32767	; 0x7fff
 1005010:	eaffff99 	b	1004e7c <__GI_sysconf+0x3dc>
 1005014:	e3a0407f 	mov	r4, #127	; 0x7f
 1005018:	eaffff97 	b	1004e7c <__GI_sysconf+0x3dc>
 100501c:	e3e0407f 	mvn	r4, #127	; 0x7f
 1005020:	eaffff95 	b	1004e7c <__GI_sysconf+0x3dc>
 1005024:	e59f4068 	ldr	r4, [pc, #104]	; 1005094 <__GI_sysconf+0x5f4>
 1005028:	eaffff93 	b	1004e7c <__GI_sysconf+0x3dc>
 100502c:	e3a040ff 	mov	r4, #255	; 0xff
 1005030:	eaffff91 	b	1004e7c <__GI_sysconf+0x3dc>
 1005034:	e30f4fff 	movw	r4, #65535	; 0xffff
 1005038:	eaffff8f 	b	1004e7c <__GI_sysconf+0x3dc>
 100503c:	e3a04009 	mov	r4, #9
 1005040:	eaffff8d 	b	1004e7c <__GI_sysconf+0x3dc>
 1005044:	e3a04b02 	mov	r4, #2048	; 0x800
 1005048:	eaffff8b 	b	1004e7c <__GI_sysconf+0x3dc>
 100504c:	e3e04102 	mvn	r4, #-2147483648	; 0x80000000
 1005050:	eaffff89 	b	1004e7c <__GI_sysconf+0x3dc>
 1005054:	e3a04001 	mov	r4, #1
 1005058:	eaffff87 	b	1004e7c <__GI_sysconf+0x3dc>
 100505c:	e3a00001 	mov	r0, #1
 1005060:	e1a0100d 	mov	r1, sp
